   1               		.file	"ff.c"
   2               	__SREG__ = 0x3f
   3               	__SP_H__ = 0x3e
   4               	__SP_L__ = 0x3d
   5               	__CCP__  = 0x34
   6               	__tmp_reg__ = 0
   7               	__zero_reg__ = 1
  15               	.Ltext0:
  16               		.section	.text.mem_cpy,"ax",@progbits
  18               	mem_cpy:
  19               	.LFB133:
  20               	.LSM0:
  21               	.LVL0:
  22 0000 CF93      		push r28
  23 0002 DF93      		push r29
  24               	/* prologue: function */
  25               	/* frame size = 0 */
  26 0004 EC01      		movw r28,r24
  27               	.LSM1:
  28 0006 20E0      		ldi r18,lo8(0)
  29 0008 30E0      		ldi r19,hi8(0)
  30 000a 00C0      		rjmp .L2
  31               	.LVL1:
  32               	.L3:
  33               	.LSM2:
  34 000c FE01      		movw r30,r28
  35 000e E20F      		add r30,r18
  36 0010 F31F      		adc r31,r19
  37 0012 DB01      		movw r26,r22
  38 0014 A20F      		add r26,r18
  39 0016 B31F      		adc r27,r19
  40 0018 8C91      		ld r24,X
  41 001a 8083      		st Z,r24
  42 001c 2F5F      		subi r18,lo8(-(1))
  43 001e 3F4F      		sbci r19,hi8(-(1))
  44 0020 4150      		subi r20,lo8(-(-1))
  45 0022 5040      		sbci r21,hi8(-(-1))
  46               	.LVL2:
  47               	.L2:
  48               	.LSM3:
  49 0024 4115      		cp r20,__zero_reg__
  50 0026 5105      		cpc r21,__zero_reg__
  51 0028 01F4      		brne .L3
  52               	/* epilogue start */
  53               	.LSM4:
  54 002a DF91      		pop r29
  55 002c CF91      		pop r28
  56               	.LVL3:
  57 002e 0895      		ret
  58               	.LFE133:
  60               		.section	.text.mem_set,"ax",@progbits
  62               	mem_set:
  63               	.LFB134:
  64               	.LSM5:
  65               	.LVL4:
  66               	/* prologue: function */
  67               	/* frame size = 0 */
  68               	.LSM6:
  69 0000 FC01      		movw r30,r24
  70               	.LVL5:
  71 0002 00C0      		rjmp .L6
  72               	.LVL6:
  73               	.L7:
  74               	.LSM7:
  75 0004 6193      		st Z+,r22
  76 0006 4150      		subi r20,lo8(-(-1))
  77 0008 5040      		sbci r21,hi8(-(-1))
  78               	.LVL7:
  79               	.L6:
  80               	.LSM8:
  81 000a 4115      		cp r20,__zero_reg__
  82 000c 5105      		cpc r21,__zero_reg__
  83 000e 01F4      		brne .L7
  84               	/* epilogue start */
  85               	.LSM9:
  86 0010 0895      		ret
  87               	.LFE134:
  89               		.section	.text.clust2sect,"ax",@progbits
  90               	.global	clust2sect
  92               	clust2sect:
  93               	.LFB139:
  94               	.LSM10:
  95               	.LVL8:
  96 0000 EF92      		push r14
  97 0002 FF92      		push r15
  98 0004 0F93      		push r16
  99 0006 1F93      		push r17
 100 0008 CF93      		push r28
 101 000a DF93      		push r29
 102               	/* prologue: function */
 103               	/* frame size = 0 */
 104 000c EC01      		movw r28,r24
 105 000e 7A01      		movw r14,r20
 106 0010 8B01      		movw r16,r22
 107               	.LSM11:
 108 0012 8EEF      		ldi r24,lo8(-2)
 109 0014 9FEF      		ldi r25,hi8(-2)
 110 0016 AFEF      		ldi r26,hlo8(-2)
 111 0018 BFEF      		ldi r27,hhi8(-2)
 112               	.LVL9:
 113 001a E80E      		add r14,r24
 114 001c F91E      		adc r15,r25
 115 001e 0A1F      		adc r16,r26
 116 0020 1B1F      		adc r17,r27
 117               	.LVL10:
 118               	.LSM12:
 119 0022 888D      		ldd r24,Y+24
 120 0024 998D      		ldd r25,Y+25
 121 0026 AA8D      		ldd r26,Y+26
 122 0028 BB8D      		ldd r27,Y+27
 123 002a 0297      		sbiw r24,2
 124 002c A109      		sbc r26,__zero_reg__
 125 002e B109      		sbc r27,__zero_reg__
 126 0030 E816      		cp r14,r24
 127 0032 F906      		cpc r15,r25
 128 0034 0A07      		cpc r16,r26
 129 0036 1B07      		cpc r17,r27
 130 0038 00F0      		brlo .L10
 131 003a 20E0      		ldi r18,lo8(0)
 132 003c 30E0      		ldi r19,hi8(0)
 133 003e 40E0      		ldi r20,hlo8(0)
 134 0040 50E0      		ldi r21,hhi8(0)
 135 0042 00C0      		rjmp .L11
 136               	.L10:
 137               	.LSM13:
 138 0044 2A81      		ldd r18,Y+2
 139 0046 30E0      		ldi r19,lo8(0)
 140 0048 40E0      		ldi r20,lo8(0)
 141 004a 50E0      		ldi r21,hi8(0)
 142 004c C801      		movw r24,r16
 143 004e B701      		movw r22,r14
 144 0050 0E94 0000 		call __mulsi3
 145 0054 9B01      		movw r18,r22
 146 0056 AC01      		movw r20,r24
 147 0058 88A5      		ldd r24,Y+40
 148 005a 99A5      		ldd r25,Y+41
 149 005c AAA5      		ldd r26,Y+42
 150 005e BBA5      		ldd r27,Y+43
 151 0060 280F      		add r18,r24
 152 0062 391F      		adc r19,r25
 153 0064 4A1F      		adc r20,r26
 154 0066 5B1F      		adc r21,r27
 155               	.L11:
 156               	.LSM14:
 157 0068 B901      		movw r22,r18
 158 006a CA01      		movw r24,r20
 159               	/* epilogue start */
 160 006c DF91      		pop r29
 161 006e CF91      		pop r28
 162               	.LVL11:
 163 0070 1F91      		pop r17
 164 0072 0F91      		pop r16
 165 0074 FF90      		pop r15
 166 0076 EF90      		pop r14
 167               	.LVL12:
 168 0078 0895      		ret
 169               	.LFE139:
 171               		.section	.text.f_mount,"ax",@progbits
 172               	.global	f_mount
 174               	f_mount:
 175               	.LFB153:
 176               	.LSM15:
 177               	.LVL13:
 178               	/* prologue: function */
 179               	/* frame size = 0 */
 180 0000 DB01      		movw r26,r22
 181               	.LSM16:
 182 0002 8823      		tst r24
 183 0004 01F0      		breq .L14
 184               	.LVL14:
 185 0006 8BE0      		ldi r24,lo8(11)
 186               	.LVL15:
 187 0008 0895      		ret
 188               	.LVL16:
 189               	.L14:
 190               	.LSM17:
 191 000a E091 0000 		lds r30,FatFs
 192 000e F091 0000 		lds r31,(FatFs)+1
 193               	.LVL17:
 194               	.LSM18:
 195 0012 3097      		sbiw r30,0
 196 0014 01F0      		breq .L16
 197               	.LSM19:
 198 0016 1082      		st Z,__zero_reg__
 199               	.L16:
 200               	.LSM20:
 201 0018 1097      		sbiw r26,0
 202 001a 01F0      		breq .L17
 203               	.LSM21:
 204 001c 1C92      		st X,__zero_reg__
 205               	.L17:
 206               	.LSM22:
 207 001e B093 0000 		sts (FatFs)+1,r27
 208 0022 A093 0000 		sts FatFs,r26
 209 0026 80E0      		ldi r24,lo8(0)
 210               	.LVL18:
 211               	.LSM23:
 212 0028 0895      		ret
 213               	.LFE153:
 215               		.section	.text.validate,"ax",@progbits
 217               	validate:
 218               	.LFB152:
 219               	.LSM24:
 220               	.LVL19:
 221               	/* prologue: function */
 222               	/* frame size = 0 */
 223 0000 FC01      		movw r30,r24
 224               	.LSM25:
 225 0002 0097      		sbiw r24,0
 226 0004 01F0      		breq .L20
 227 0006 8081      		ld r24,Z
 228               	.LVL20:
 229 0008 8823      		tst r24
 230 000a 01F0      		breq .L20
 231 000c 8681      		ldd r24,Z+6
 232 000e 9781      		ldd r25,Z+7
 233 0010 8617      		cp r24,r22
 234 0012 9707      		cpc r25,r23
 235 0014 01F4      		brne .L20
 236               	.LSM26:
 237 0016 8181      		ldd r24,Z+1
 238 0018 0E94 0000 		call disk_status
 239               	.LVL21:
 240 001c 80FD      		sbrc r24,0
 241 001e 00C0      		rjmp .L21
 242 0020 80E0      		ldi r24,lo8(0)
 243 0022 0895      		ret
 244               	.L21:
 245 0024 83E0      		ldi r24,lo8(3)
 246 0026 0895      		ret
 247               	.LVL22:
 248               	.L20:
 249 0028 89E0      		ldi r24,lo8(9)
 250               	.LSM27:
 251 002a 0895      		ret
 252               	.LFE152:
 254               		.section	.text.move_window,"ax",@progbits
 256               	move_window:
 257               	.LFB137:
 258               	.LSM28:
 259               	.LVL23:
 260 0000 6F92      		push r6
 261 0002 7F92      		push r7
 262 0004 8F92      		push r8
 263 0006 9F92      		push r9
 264 0008 AF92      		push r10
 265 000a BF92      		push r11
 266 000c CF92      		push r12
 267 000e DF92      		push r13
 268 0010 EF92      		push r14
 269 0012 FF92      		push r15
 270 0014 0F93      		push r16
 271 0016 1F93      		push r17
 272 0018 CF93      		push r28
 273 001a DF93      		push r29
 274               	/* prologue: function */
 275               	/* frame size = 0 */
 276 001c EC01      		movw r28,r24
 277 001e 4A01      		movw r8,r20
 278 0020 5B01      		movw r10,r22
 279               	.LSM29:
 280 0022 CCA4      		ldd r12,Y+44
 281 0024 DDA4      		ldd r13,Y+45
 282 0026 EEA4      		ldd r14,Y+46
 283 0028 FFA4      		ldd r15,Y+47
 284               	.LVL24:
 285               	.LSM30:
 286 002a C416      		cp r12,r20
 287 002c D506      		cpc r13,r21
 288 002e E606      		cpc r14,r22
 289 0030 F706      		cpc r15,r23
 290 0032 01F4      		brne .+2
 291 0034 00C0      		rjmp .L25
 292               	.LVL25:
 293               	.LSM31:
 294 0036 8C81      		ldd r24,Y+4
 295 0038 8823      		tst r24
 296 003a 01F0      		breq .L26
 297               	.LSM32:
 298 003c 80E3      		ldi r24,lo8(48)
 299 003e 682E      		mov r6,r24
 300 0040 712C      		mov r7,__zero_reg__
 301 0042 6C0E      		add r6,r28
 302 0044 7D1E      		adc r7,r29
 303 0046 8981      		ldd r24,Y+1
 304 0048 B301      		movw r22,r6
 305 004a A701      		movw r20,r14
 306 004c 9601      		movw r18,r12
 307 004e 01E0      		ldi r16,lo8(1)
 308 0050 0E94 0000 		call disk_write
 309               	.LVL26:
 310 0054 8823      		tst r24
 311 0056 01F4      		brne .L27
 312               	.LSM33:
 313 0058 1C82      		std Y+4,__zero_reg__
 314               	.LSM34:
 315 005a 8C8D      		ldd r24,Y+28
 316 005c 9D8D      		ldd r25,Y+29
 317 005e AE8D      		ldd r26,Y+30
 318 0060 BF8D      		ldd r27,Y+31
 319 0062 28A1      		ldd r18,Y+32
 320 0064 39A1      		ldd r19,Y+33
 321 0066 4AA1      		ldd r20,Y+34
 322 0068 5BA1      		ldd r21,Y+35
 323 006a 820F      		add r24,r18
 324 006c 931F      		adc r25,r19
 325 006e A41F      		adc r26,r20
 326 0070 B51F      		adc r27,r21
 327 0072 C816      		cp r12,r24
 328 0074 D906      		cpc r13,r25
 329 0076 EA06      		cpc r14,r26
 330 0078 FB06      		cpc r15,r27
 331 007a 00F4      		brsh .L26
 332               	.LBB2:
 333               	.LSM35:
 334 007c 1B81      		ldd r17,Y+3
 335               	.LVL27:
 336 007e 00C0      		rjmp .L28
 337               	.L29:
 338               	.LSM36:
 339 0080 8C8D      		ldd r24,Y+28
 340 0082 9D8D      		ldd r25,Y+29
 341 0084 AE8D      		ldd r26,Y+30
 342 0086 BF8D      		ldd r27,Y+31
 343 0088 C80E      		add r12,r24
 344 008a D91E      		adc r13,r25
 345 008c EA1E      		adc r14,r26
 346 008e FB1E      		adc r15,r27
 347               	.LSM37:
 348 0090 8981      		ldd r24,Y+1
 349 0092 B301      		movw r22,r6
 350 0094 A701      		movw r20,r14
 351 0096 9601      		movw r18,r12
 352 0098 01E0      		ldi r16,lo8(1)
 353 009a 0E94 0000 		call disk_write
 354               	.LSM38:
 355 009e 1150      		subi r17,lo8(-(-1))
 356               	.L28:
 357 00a0 1230      		cpi r17,lo8(2)
 358 00a2 00F4      		brsh .L29
 359               	.LVL28:
 360               	.L26:
 361               	.LBE2:
 362               	.LSM39:
 363 00a4 8114      		cp r8,__zero_reg__
 364 00a6 9104      		cpc r9,__zero_reg__
 365 00a8 A104      		cpc r10,__zero_reg__
 366 00aa B104      		cpc r11,__zero_reg__
 367 00ac 01F0      		breq .L25
 368               	.LSM40:
 369 00ae BE01      		movw r22,r28
 370 00b0 605D      		subi r22,lo8(-(48))
 371 00b2 7F4F      		sbci r23,hi8(-(48))
 372 00b4 8981      		ldd r24,Y+1
 373 00b6 A501      		movw r20,r10
 374 00b8 9401      		movw r18,r8
 375 00ba 01E0      		ldi r16,lo8(1)
 376 00bc 0E94 0000 		call disk_read
 377 00c0 8823      		tst r24
 378 00c2 01F4      		brne .L27
 379               	.LSM41:
 380 00c4 8CA6      		std Y+44,r8
 381 00c6 9DA6      		std Y+45,r9
 382 00c8 AEA6      		std Y+46,r10
 383 00ca BFA6      		std Y+47,r11
 384 00cc 00C0      		rjmp .L30
 385               	.L27:
 386 00ce 81E0      		ldi r24,lo8(1)
 387 00d0 00C0      		rjmp .L30
 388               	.LVL29:
 389               	.L25:
 390 00d2 80E0      		ldi r24,lo8(0)
 391               	.LVL30:
 392               	.L30:
 393               	/* epilogue start */
 394               	.LSM42:
 395 00d4 DF91      		pop r29
 396 00d6 CF91      		pop r28
 397               	.LVL31:
 398 00d8 1F91      		pop r17
 399               	.LVL32:
 400 00da 0F91      		pop r16
 401 00dc FF90      		pop r15
 402 00de EF90      		pop r14
 403 00e0 DF90      		pop r13
 404 00e2 CF90      		pop r12
 405               	.LVL33:
 406 00e4 BF90      		pop r11
 407 00e6 AF90      		pop r10
 408 00e8 9F90      		pop r9
 409 00ea 8F90      		pop r8
 410               	.LVL34:
 411 00ec 7F90      		pop r7
 412 00ee 6F90      		pop r6
 413 00f0 0895      		ret
 414               	.LFE137:
 416               		.section	.text.put_fat,"ax",@progbits
 417               	.global	put_fat
 419               	put_fat:
 420               	.LFB141:
 421               	.LSM43:
 422               	.LVL35:
 423 0000 6F92      		push r6
 424 0002 7F92      		push r7
 425 0004 8F92      		push r8
 426 0006 9F92      		push r9
 427 0008 AF92      		push r10
 428 000a BF92      		push r11
 429 000c CF92      		push r12
 430 000e DF92      		push r13
 431 0010 EF92      		push r14
 432 0012 FF92      		push r15
 433 0014 0F93      		push r16
 434               	.LVL36:
 435 0016 1F93      		push r17
 436 0018 CF93      		push r28
 437 001a DF93      		push r29
 438               	/* prologue: function */
 439               	/* frame size = 0 */
 440 001c 5C01      		movw r10,r24
 441 001e 6A01      		movw r12,r20
 442 0020 7B01      		movw r14,r22
 443 0022 3801      		movw r6,r16
 444 0024 4901      		movw r8,r18
 445               	.LVL37:
 446               	.LSM44:
 447 0026 4230      		cpi r20,lo8(2)
 448 0028 5105      		cpc r21,__zero_reg__
 449 002a 6105      		cpc r22,__zero_reg__
 450 002c 7105      		cpc r23,__zero_reg__
 451               	.LVL38:
 452 002e 00F4      		brsh .+2
 453 0030 00C0      		rjmp .L33
 454               	.LVL39:
 455 0032 E501      		movw r28,r10
 456 0034 888D      		ldd r24,Y+24
 457 0036 998D      		ldd r25,Y+25
 458 0038 AA8D      		ldd r26,Y+26
 459 003a BB8D      		ldd r27,Y+27
 460 003c 4817      		cp r20,r24
 461 003e 5907      		cpc r21,r25
 462 0040 6A07      		cpc r22,r26
 463 0042 7B07      		cpc r23,r27
 464 0044 00F0      		brlo .+2
 465 0046 00C0      		rjmp .L33
 466               	.LSM45:
 467 0048 8881      		ld r24,Y
 468 004a 8230      		cpi r24,lo8(2)
 469 004c 01F4      		brne .+2
 470 004e 00C0      		rjmp .L36
 471 0050 8330      		cpi r24,lo8(3)
 472 0052 01F4      		brne .+2
 473 0054 00C0      		rjmp .L37
 474 0056 8130      		cpi r24,lo8(1)
 475 0058 01F0      		breq .L35
 476 005a 12E0      		ldi r17,lo8(2)
 477               	.LVL40:
 478 005c 00C0      		rjmp .L38
 479               	.LVL41:
 480               	.L35:
 481               	.LSM46:
 482 005e EA01      		movw r28,r20
 483               	.LVL42:
 484 0060 D695      		lsr r29
 485 0062 C795      		ror r28
 486               	.LVL43:
 487 0064 C40F      		add r28,r20
 488 0066 D51F      		adc r29,r21
 489               	.LSM47:
 490 0068 F501      		movw r30,r10
 491 006a 6285      		ldd r22,Z+10
 492 006c 7385      		ldd r23,Z+11
 493 006e CE01      		movw r24,r28
 494 0070 0E94 0000 		call __udivmodhi4
 495 0074 AB01      		movw r20,r22
 496               	.LVL44:
 497 0076 60E0      		ldi r22,lo8(0)
 498 0078 70E0      		ldi r23,hi8(0)
 499 007a 80A1      		ldd r24,Z+32
 500 007c 91A1      		ldd r25,Z+33
 501 007e A2A1      		ldd r26,Z+34
 502 0080 B3A1      		ldd r27,Z+35
 503 0082 480F      		add r20,r24
 504 0084 591F      		adc r21,r25
 505 0086 6A1F      		adc r22,r26
 506 0088 7B1F      		adc r23,r27
 507 008a C501      		movw r24,r10
 508 008c 0E94 0000 		call move_window
 509 0090 182F      		mov r17,r24
 510               	.LVL45:
 511               	.LSM48:
 512 0092 8823      		tst r24
 513 0094 01F0      		breq .+2
 514 0096 00C0      		rjmp .L38
 515               	.LVL46:
 516               	.LSM49:
 517 0098 F501      		movw r30,r10
 518 009a 6285      		ldd r22,Z+10
 519 009c 7385      		ldd r23,Z+11
 520 009e CE01      		movw r24,r28
 521               	.LVL47:
 522 00a0 0E94 0000 		call __udivmodhi4
 523 00a4 DC01      		movw r26,r24
 524               	.LSM50:
 525 00a6 91E0      		ldi r25,lo8(1)
 526 00a8 E92E      		mov r14,r25
 527 00aa F12C      		mov r15,__zero_reg__
 528 00ac EC20      		and r14,r12
 529 00ae FD20      		and r15,r13
 530 00b0 E114      		cp r14,__zero_reg__
 531 00b2 F104      		cpc r15,__zero_reg__
 532 00b4 01F0      		breq .L39
 533 00b6 EA0F      		add r30,r26
 534 00b8 FB1F      		adc r31,r27
 535 00ba 80A9      		ldd r24,Z+48
 536 00bc 8F70      		andi r24,lo8(15)
 537 00be 962D      		mov r25,r6
 538               	.LVL48:
 539 00c0 9295      		swap r25
 540 00c2 907F      		andi r25,lo8(-16)
 541 00c4 982B      		or r25,r24
 542 00c6 00C0      		rjmp .L40
 543               	.LVL49:
 544               	.L39:
 545 00c8 962D      		mov r25,r6
 546               	.LVL50:
 547               	.L40:
 548 00ca AA0D      		add r26,r10
 549 00cc BB1D      		adc r27,r11
 550 00ce D096      		adiw r26,48
 551 00d0 9C93      		st X,r25
 552               	.LSM51:
 553 00d2 2196      		adiw r28,1
 554               	.LVL51:
 555               	.LSM52:
 556 00d4 81E0      		ldi r24,lo8(1)
 557 00d6 F501      		movw r30,r10
 558 00d8 8483      		std Z+4,r24
 559               	.LSM53:
 560 00da 6285      		ldd r22,Z+10
 561 00dc 7385      		ldd r23,Z+11
 562 00de CE01      		movw r24,r28
 563 00e0 0E94 0000 		call __udivmodhi4
 564 00e4 AB01      		movw r20,r22
 565 00e6 60E0      		ldi r22,lo8(0)
 566 00e8 70E0      		ldi r23,hi8(0)
 567 00ea 80A1      		ldd r24,Z+32
 568 00ec 91A1      		ldd r25,Z+33
 569 00ee A2A1      		ldd r26,Z+34
 570 00f0 B3A1      		ldd r27,Z+35
 571 00f2 480F      		add r20,r24
 572 00f4 591F      		adc r21,r25
 573 00f6 6A1F      		adc r22,r26
 574 00f8 7B1F      		adc r23,r27
 575 00fa C501      		movw r24,r10
 576 00fc 0E94 0000 		call move_window
 577 0100 182F      		mov r17,r24
 578               	.LSM54:
 579 0102 8823      		tst r24
 580 0104 01F0      		breq .+2
 581 0106 00C0      		rjmp .L38
 582               	.LVL52:
 583               	.LSM55:
 584 0108 F501      		movw r30,r10
 585 010a 6285      		ldd r22,Z+10
 586 010c 7385      		ldd r23,Z+11
 587 010e CE01      		movw r24,r28
 588               	.LVL53:
 589 0110 0E94 0000 		call __udivmodhi4
 590 0114 EC01      		movw r28,r24
 591               	.LVL54:
 592               	.LSM56:
 593 0116 EF28      		or r14,r15
 594 0118 01F0      		breq .L41
 595 011a 84E0      		ldi r24,4
 596 011c 9694      	1:	lsr r9
 597 011e 8794      		ror r8
 598 0120 7794      		ror r7
 599 0122 6794      		ror r6
 600 0124 8A95      		dec r24
 601 0126 01F4      		brne 1b
 602               	.LVL55:
 603 0128 462D      		mov r20,r6
 604 012a 00C0      		rjmp .L42
 605               	.LVL56:
 606               	.L41:
 607 012c F501      		movw r30,r10
 608 012e E80F      		add r30,r24
 609 0130 F91F      		adc r31,r25
 610 0132 40A9      		ldd r20,Z+48
 611 0134 407F      		andi r20,lo8(-16)
 612 0136 BB27      		clr r27
 613 0138 A92D      		mov r26,r9
 614 013a 982D      		mov r25,r8
 615 013c 872D      		mov r24,r7
 616               	.LVL57:
 617 013e 8F70      		andi r24,lo8(15)
 618 0140 482B      		or r20,r24
 619               	.L42:
 620 0142 CA0D      		add r28,r10
 621 0144 DB1D      		adc r29,r11
 622 0146 48AB      		std Y+48,r20
 623 0148 00C0      		rjmp .L38
 624               	.LVL58:
 625               	.L36:
 626               	.LSM57:
 627 014a E501      		movw r28,r10
 628 014c 2A85      		ldd r18,Y+10
 629 014e 3B85      		ldd r19,Y+11
 630 0150 3695      		lsr r19
 631 0152 2795      		ror r18
 632 0154 40E0      		ldi r20,lo8(0)
 633 0156 50E0      		ldi r21,hi8(0)
 634               	.LVL59:
 635 0158 C701      		movw r24,r14
 636 015a B601      		movw r22,r12
 637 015c 0E94 0000 		call __udivmodsi4
 638 0160 DA01      		movw r26,r20
 639 0162 C901      		movw r24,r18
 640 0164 48A1      		ldd r20,Y+32
 641 0166 59A1      		ldd r21,Y+33
 642 0168 6AA1      		ldd r22,Y+34
 643 016a 7BA1      		ldd r23,Y+35
 644 016c 480F      		add r20,r24
 645 016e 591F      		adc r21,r25
 646 0170 6A1F      		adc r22,r26
 647 0172 7B1F      		adc r23,r27
 648 0174 C501      		movw r24,r10
 649 0176 0E94 0000 		call move_window
 650 017a 182F      		mov r17,r24
 651               	.LVL60:
 652               	.LSM58:
 653 017c 8823      		tst r24
 654 017e 01F0      		breq .+2
 655 0180 00C0      		rjmp .L38
 656               	.LVL61:
 657               	.LSM59:
 658 0182 CC0C      		lsl r12
 659 0184 DD1C      		rol r13
 660 0186 EE1C      		rol r14
 661 0188 FF1C      		rol r15
 662 018a 2A85      		ldd r18,Y+10
 663 018c 3B85      		ldd r19,Y+11
 664 018e 40E0      		ldi r20,lo8(0)
 665 0190 50E0      		ldi r21,hi8(0)
 666 0192 C701      		movw r24,r14
 667 0194 B601      		movw r22,r12
 668 0196 0E94 0000 		call __udivmodsi4
 669 019a DC01      		movw r26,r24
 670 019c CB01      		movw r24,r22
 671               	.LVL62:
 672               	.LSM60:
 673 019e F501      		movw r30,r10
 674 01a0 E80F      		add r30,r24
 675 01a2 F91F      		adc r31,r25
 676 01a4 60AA      		std Z+48,r6
 677 01a6 272D      		mov r18,r7
 678 01a8 3327      		clr r19
 679 01aa 21AB      		std Z+49,r18
 680 01ac 00C0      		rjmp .L38
 681               	.LVL63:
 682               	.L37:
 683               	.LSM61:
 684 01ae E501      		movw r28,r10
 685 01b0 2A85      		ldd r18,Y+10
 686 01b2 3B85      		ldd r19,Y+11
 687 01b4 3695      		lsr r19
 688 01b6 2795      		ror r18
 689 01b8 3695      		lsr r19
 690 01ba 2795      		ror r18
 691 01bc 40E0      		ldi r20,lo8(0)
 692 01be 50E0      		ldi r21,hi8(0)
 693               	.LVL64:
 694 01c0 C701      		movw r24,r14
 695 01c2 B601      		movw r22,r12
 696 01c4 0E94 0000 		call __udivmodsi4
 697 01c8 DA01      		movw r26,r20
 698 01ca C901      		movw r24,r18
 699 01cc 48A1      		ldd r20,Y+32
 700 01ce 59A1      		ldd r21,Y+33
 701 01d0 6AA1      		ldd r22,Y+34
 702 01d2 7BA1      		ldd r23,Y+35
 703 01d4 480F      		add r20,r24
 704 01d6 591F      		adc r21,r25
 705 01d8 6A1F      		adc r22,r26
 706 01da 7B1F      		adc r23,r27
 707 01dc C501      		movw r24,r10
 708 01de 0E94 0000 		call move_window
 709 01e2 182F      		mov r17,r24
 710               	.LVL65:
 711               	.LSM62:
 712 01e4 8823      		tst r24
 713 01e6 01F4      		brne .L38
 714               	.LVL66:
 715               	.LSM63:
 716 01e8 62E0      		ldi r22,2
 717 01ea CC0C      	1:	lsl r12
 718 01ec DD1C      		rol r13
 719 01ee EE1C      		rol r14
 720 01f0 FF1C      		rol r15
 721 01f2 6A95      		dec r22
 722 01f4 01F4      		brne 1b
 723 01f6 2A85      		ldd r18,Y+10
 724 01f8 3B85      		ldd r19,Y+11
 725 01fa 40E0      		ldi r20,lo8(0)
 726 01fc 50E0      		ldi r21,hi8(0)
 727 01fe C701      		movw r24,r14
 728 0200 B601      		movw r22,r12
 729 0202 0E94 0000 		call __udivmodsi4
 730 0206 9B01      		movw r18,r22
 731 0208 AC01      		movw r20,r24
 732 020a 205D      		subi r18,lo8(-(48))
 733 020c 3F4F      		sbci r19,hi8(-(48))
 734 020e F501      		movw r30,r10
 735               	.LVL67:
 736 0210 E20F      		add r30,r18
 737 0212 F31F      		adc r31,r19
 738 0214 2053      		subi r18,lo8(-(-48))
 739 0216 3040      		sbci r19,hi8(-(-48))
 740               	.LSM64:
 741 0218 8381      		ldd r24,Z+3
 742               	.LVL68:
 743 021a 90E0      		ldi r25,lo8(0)
 744 021c A0E0      		ldi r26,lo8(0)
 745 021e B0E0      		ldi r27,hi8(0)
 746 0220 B82F      		mov r27,r24
 747 0222 AA27      		clr r26
 748 0224 9927      		clr r25
 749 0226 8827      		clr r24
 750               	.LVL69:
 751 0228 2A0D      		add r18,r10
 752 022a 3B1D      		adc r19,r11
 753 022c 8070      		andi r24,lo8(-268435456)
 754 022e 9070      		andi r25,hi8(-268435456)
 755 0230 A070      		andi r26,hlo8(-268435456)
 756 0232 B07F      		andi r27,hhi8(-268435456)
 757 0234 8629      		or r24,r6
 758 0236 9729      		or r25,r7
 759 0238 A829      		or r26,r8
 760 023a B929      		or r27,r9
 761               	.LSM65:
 762 023c E901      		movw r28,r18
 763 023e 88AB      		std Y+48,r24
 764 0240 292F      		mov r18,r25
 765 0242 3327      		clr r19
 766 0244 2183      		std Z+1,r18
 767 0246 9D01      		movw r18,r26
 768 0248 4427      		clr r20
 769 024a 5527      		clr r21
 770 024c 2283      		std Z+2,r18
 771 024e 8B2F      		mov r24,r27
 772 0250 9927      		clr r25
 773 0252 AA27      		clr r26
 774 0254 BB27      		clr r27
 775               	.LVL70:
 776 0256 8383      		std Z+3,r24
 777               	.LVL71:
 778               	.L38:
 779               	.LSM66:
 780 0258 81E0      		ldi r24,lo8(1)
 781 025a F501      		movw r30,r10
 782               	.LVL72:
 783 025c 8483      		std Z+4,r24
 784 025e 00C0      		rjmp .L43
 785               	.LVL73:
 786               	.L33:
 787 0260 12E0      		ldi r17,lo8(2)
 788               	.LVL74:
 789               	.L43:
 790               	.LSM67:
 791 0262 812F      		mov r24,r17
 792               	/* epilogue start */
 793 0264 DF91      		pop r29
 794 0266 CF91      		pop r28
 795               	.LVL75:
 796 0268 1F91      		pop r17
 797               	.LVL76:
 798 026a 0F91      		pop r16
 799 026c FF90      		pop r15
 800 026e EF90      		pop r14
 801 0270 DF90      		pop r13
 802 0272 CF90      		pop r12
 803 0274 BF90      		pop r11
 804 0276 AF90      		pop r10
 805               	.LVL77:
 806 0278 9F90      		pop r9
 807 027a 8F90      		pop r8
 808 027c 7F90      		pop r7
 809 027e 6F90      		pop r6
 810               	.LVL78:
 811 0280 0895      		ret
 812               	.LFE141:
 814               		.section	.text.get_fat,"ax",@progbits
 815               	.global	get_fat
 817               	get_fat:
 818               	.LFB140:
 819               	.LSM68:
 820               	.LVL79:
 821 0000 BF92      		push r11
 822 0002 CF92      		push r12
 823 0004 DF92      		push r13
 824 0006 EF92      		push r14
 825 0008 FF92      		push r15
 826 000a 0F93      		push r16
 827 000c 1F93      		push r17
 828 000e CF93      		push r28
 829 0010 DF93      		push r29
 830               	/* prologue: function */
 831               	/* frame size = 0 */
 832 0012 EC01      		movw r28,r24
 833 0014 7A01      		movw r14,r20
 834 0016 8B01      		movw r16,r22
 835               	.LSM69:
 836 0018 4230      		cpi r20,lo8(2)
 837 001a 5105      		cpc r21,__zero_reg__
 838 001c 6105      		cpc r22,__zero_reg__
 839 001e 7105      		cpc r23,__zero_reg__
 840               	.LVL80:
 841 0020 00F4      		brsh .+2
 842 0022 00C0      		rjmp .L46
 843 0024 888D      		ldd r24,Y+24
 844 0026 998D      		ldd r25,Y+25
 845 0028 AA8D      		ldd r26,Y+26
 846 002a BB8D      		ldd r27,Y+27
 847 002c 4817      		cp r20,r24
 848 002e 5907      		cpc r21,r25
 849 0030 6A07      		cpc r22,r26
 850 0032 7B07      		cpc r23,r27
 851 0034 00F0      		brlo .+2
 852 0036 00C0      		rjmp .L46
 853               	.LSM70:
 854 0038 8881      		ld r24,Y
 855 003a 8230      		cpi r24,lo8(2)
 856 003c 01F4      		brne .+2
 857 003e 00C0      		rjmp .L49
 858 0040 8330      		cpi r24,lo8(3)
 859 0042 01F4      		brne .+2
 860 0044 00C0      		rjmp .L50
 861 0046 8130      		cpi r24,lo8(1)
 862 0048 01F0      		breq .+2
 863 004a 00C0      		rjmp .L47
 864               	.LSM71:
 865 004c 6A01      		movw r12,r20
 866               	.LVL81:
 867 004e D694      		lsr r13
 868 0050 C794      		ror r12
 869               	.LVL82:
 870 0052 C40E      		add r12,r20
 871 0054 D51E      		adc r13,r21
 872               	.LSM72:
 873 0056 6A85      		ldd r22,Y+10
 874 0058 7B85      		ldd r23,Y+11
 875 005a C601      		movw r24,r12
 876 005c 0E94 0000 		call __udivmodhi4
 877 0060 AB01      		movw r20,r22
 878               	.LVL83:
 879 0062 60E0      		ldi r22,lo8(0)
 880 0064 70E0      		ldi r23,hi8(0)
 881 0066 88A1      		ldd r24,Y+32
 882 0068 99A1      		ldd r25,Y+33
 883 006a AAA1      		ldd r26,Y+34
 884 006c BBA1      		ldd r27,Y+35
 885 006e 480F      		add r20,r24
 886 0070 591F      		adc r21,r25
 887 0072 6A1F      		adc r22,r26
 888 0074 7B1F      		adc r23,r27
 889 0076 CE01      		movw r24,r28
 890 0078 0E94 0000 		call move_window
 891 007c 8823      		tst r24
 892 007e 01F0      		breq .+2
 893 0080 00C0      		rjmp .L47
 894               	.LSM73:
 895 0082 2A85      		ldd r18,Y+10
 896 0084 3B85      		ldd r19,Y+11
 897 0086 C601      		movw r24,r12
 898 0088 B901      		movw r22,r18
 899 008a 0E94 0000 		call __udivmodhi4
 900 008e FE01      		movw r30,r28
 901 0090 E80F      		add r30,r24
 902 0092 F91F      		adc r31,r25
 903 0094 B0A8      		ldd r11,Z+48
 904 0096 0894      		sec
 905 0098 C11C      		adc r12,__zero_reg__
 906 009a D11C      		adc r13,__zero_reg__
 907               	.LVL84:
 908               	.LSM74:
 909 009c C601      		movw r24,r12
 910 009e B901      		movw r22,r18
 911 00a0 0E94 0000 		call __udivmodhi4
 912 00a4 AB01      		movw r20,r22
 913 00a6 60E0      		ldi r22,lo8(0)
 914 00a8 70E0      		ldi r23,hi8(0)
 915 00aa 88A1      		ldd r24,Y+32
 916 00ac 99A1      		ldd r25,Y+33
 917 00ae AAA1      		ldd r26,Y+34
 918 00b0 BBA1      		ldd r27,Y+35
 919 00b2 480F      		add r20,r24
 920 00b4 591F      		adc r21,r25
 921 00b6 6A1F      		adc r22,r26
 922 00b8 7B1F      		adc r23,r27
 923 00ba CE01      		movw r24,r28
 924 00bc 0E94 0000 		call move_window
 925 00c0 8823      		tst r24
 926 00c2 01F0      		breq .+2
 927 00c4 00C0      		rjmp .L47
 928               	.LSM75:
 929 00c6 2B2D      		mov r18,r11
 930               	.LVL85:
 931 00c8 30E0      		ldi r19,lo8(0)
 932               	.LVL86:
 933               	.LSM76:
 934 00ca 6A85      		ldd r22,Y+10
 935 00cc 7B85      		ldd r23,Y+11
 936 00ce C601      		movw r24,r12
 937 00d0 0E94 0000 		call __udivmodhi4
 938 00d4 C80F      		add r28,r24
 939 00d6 D91F      		adc r29,r25
 940 00d8 98A9      		ldd r25,Y+48
 941 00da 80E0      		ldi r24,lo8(0)
 942 00dc 282B      		or r18,r24
 943 00de 392B      		or r19,r25
 944               	.LVL87:
 945               	.LSM77:
 946 00e0 C701      		movw r24,r14
 947               	.LVL88:
 948 00e2 8170      		andi r24,lo8(1)
 949 00e4 9070      		andi r25,hi8(1)
 950 00e6 892B      		or r24,r25
 951 00e8 01F0      		breq .L51
 952 00ea A4E0      		ldi r26,4
 953 00ec 3695      	1:	lsr r19
 954 00ee 2795      		ror r18
 955 00f0 AA95      		dec r26
 956 00f2 01F4      		brne 1b
 957 00f4 7901      		movw r14,r18
 958 00f6 00C0      		rjmp .L54
 959               	.L51:
 960 00f8 7901      		movw r14,r18
 961 00fa 00E0      		ldi r16,lo8(0)
 962 00fc 10E0      		ldi r17,hi8(0)
 963 00fe 8FEF      		ldi r24,lo8(4095)
 964 0100 9FE0      		ldi r25,hi8(4095)
 965 0102 A0E0      		ldi r26,hlo8(4095)
 966 0104 B0E0      		ldi r27,hhi8(4095)
 967 0106 00C0      		rjmp .L55
 968               	.LVL89:
 969               	.L49:
 970               	.LSM78:
 971 0108 2A85      		ldd r18,Y+10
 972 010a 3B85      		ldd r19,Y+11
 973 010c 3695      		lsr r19
 974 010e 2795      		ror r18
 975 0110 40E0      		ldi r20,lo8(0)
 976 0112 50E0      		ldi r21,hi8(0)
 977               	.LVL90:
 978 0114 C801      		movw r24,r16
 979 0116 B701      		movw r22,r14
 980 0118 0E94 0000 		call __udivmodsi4
 981 011c DA01      		movw r26,r20
 982 011e C901      		movw r24,r18
 983 0120 48A1      		ldd r20,Y+32
 984 0122 59A1      		ldd r21,Y+33
 985 0124 6AA1      		ldd r22,Y+34
 986 0126 7BA1      		ldd r23,Y+35
 987 0128 480F      		add r20,r24
 988 012a 591F      		adc r21,r25
 989 012c 6A1F      		adc r22,r26
 990 012e 7B1F      		adc r23,r27
 991 0130 CE01      		movw r24,r28
 992 0132 0E94 0000 		call move_window
 993 0136 8823      		tst r24
 994 0138 01F0      		breq .+2
 995 013a 00C0      		rjmp .L47
 996               	.LSM79:
 997 013c EE0C      		lsl r14
 998 013e FF1C      		rol r15
 999 0140 001F      		rol r16
 1000 0142 111F      		rol r17
 1001 0144 2A85      		ldd r18,Y+10
 1002 0146 3B85      		ldd r19,Y+11
 1003 0148 40E0      		ldi r20,lo8(0)
 1004 014a 50E0      		ldi r21,hi8(0)
 1005 014c C801      		movw r24,r16
 1006 014e B701      		movw r22,r14
 1007 0150 0E94 0000 		call __udivmodsi4
 1008 0154 DC01      		movw r26,r24
 1009 0156 CB01      		movw r24,r22
 1010               	.LSM80:
 1011 0158 FE01      		movw r30,r28
 1012 015a E80F      		add r30,r24
 1013 015c F91F      		adc r31,r25
 1014 015e 40A9      		ldd r20,Z+48
 1015 0160 50E0      		ldi r21,lo8(0)
 1016 0162 31A9      		ldd r19,Z+49
 1017 0164 20E0      		ldi r18,lo8(0)
 1018 0166 422B      		or r20,r18
 1019 0168 532B      		or r21,r19
 1020 016a 7A01      		movw r14,r20
 1021               	.LVL91:
 1022               	.L54:
 1023 016c 00E0      		ldi r16,lo8(0)
 1024 016e 10E0      		ldi r17,hi8(0)
 1025 0170 00C0      		rjmp .L52
 1026               	.LVL92:
 1027               	.L50:
 1028               	.LSM81:
 1029 0172 2A85      		ldd r18,Y+10
 1030 0174 3B85      		ldd r19,Y+11
 1031 0176 3695      		lsr r19
 1032 0178 2795      		ror r18
 1033 017a 3695      		lsr r19
 1034 017c 2795      		ror r18
 1035 017e 40E0      		ldi r20,lo8(0)
 1036 0180 50E0      		ldi r21,hi8(0)
 1037               	.LVL93:
 1038 0182 C801      		movw r24,r16
 1039 0184 B701      		movw r22,r14
 1040 0186 0E94 0000 		call __udivmodsi4
 1041 018a DA01      		movw r26,r20
 1042 018c C901      		movw r24,r18
 1043 018e 48A1      		ldd r20,Y+32
 1044 0190 59A1      		ldd r21,Y+33
 1045 0192 6AA1      		ldd r22,Y+34
 1046 0194 7BA1      		ldd r23,Y+35
 1047 0196 480F      		add r20,r24
 1048 0198 591F      		adc r21,r25
 1049 019a 6A1F      		adc r22,r26
 1050 019c 7B1F      		adc r23,r27
 1051 019e CE01      		movw r24,r28
 1052 01a0 0E94 0000 		call move_window
 1053 01a4 8823      		tst r24
 1054 01a6 01F0      		breq .+2
 1055 01a8 00C0      		rjmp .L47
 1056               	.LSM82:
 1057 01aa 62E0      		ldi r22,2
 1058 01ac EE0C      	1:	lsl r14
 1059 01ae FF1C      		rol r15
 1060 01b0 001F      		rol r16
 1061 01b2 111F      		rol r17
 1062 01b4 6A95      		dec r22
 1063 01b6 01F4      		brne 1b
 1064 01b8 2A85      		ldd r18,Y+10
 1065 01ba 3B85      		ldd r19,Y+11
 1066 01bc 40E0      		ldi r20,lo8(0)
 1067 01be 50E0      		ldi r21,hi8(0)
 1068 01c0 C801      		movw r24,r16
 1069 01c2 B701      		movw r22,r14
 1070 01c4 0E94 0000 		call __udivmodsi4
 1071 01c8 9B01      		movw r18,r22
 1072 01ca AC01      		movw r20,r24
 1073 01cc 205D      		subi r18,lo8(-(48))
 1074 01ce 3F4F      		sbci r19,hi8(-(48))
 1075 01d0 FE01      		movw r30,r28
 1076               	.LVL94:
 1077 01d2 E20F      		add r30,r18
 1078 01d4 F31F      		adc r31,r19
 1079 01d6 2053      		subi r18,lo8(-(-48))
 1080 01d8 3040      		sbci r19,hi8(-(-48))
 1081               	.LSM83:
 1082 01da 8281      		ldd r24,Z+2
 1083 01dc 90E0      		ldi r25,lo8(0)
 1084 01de A0E0      		ldi r26,lo8(0)
 1085 01e0 B0E0      		ldi r27,hi8(0)
 1086 01e2 8C01      		movw r16,r24
 1087 01e4 FF24      		clr r15
 1088 01e6 EE24      		clr r14
 1089               	.LVL95:
 1090 01e8 8381      		ldd r24,Z+3
 1091 01ea 90E0      		ldi r25,lo8(0)
 1092 01ec A0E0      		ldi r26,lo8(0)
 1093 01ee B0E0      		ldi r27,hi8(0)
 1094 01f0 B82F      		mov r27,r24
 1095 01f2 AA27      		clr r26
 1096 01f4 9927      		clr r25
 1097 01f6 8827      		clr r24
 1098 01f8 E82A      		or r14,r24
 1099 01fa F92A      		or r15,r25
 1100 01fc 0A2B      		or r16,r26
 1101 01fe 1B2B      		or r17,r27
 1102 0200 9181      		ldd r25,Z+1
 1103 0202 80E0      		ldi r24,lo8(0)
 1104 0204 A0E0      		ldi r26,lo8(0)
 1105 0206 B0E0      		ldi r27,hi8(0)
 1106 0208 E82A      		or r14,r24
 1107 020a F92A      		or r15,r25
 1108 020c 0A2B      		or r16,r26
 1109 020e 1B2B      		or r17,r27
 1110 0210 2C0F      		add r18,r28
 1111 0212 3D1F      		adc r19,r29
 1112 0214 F901      		movw r30,r18
 1113               	.LVL96:
 1114 0216 80A9      		ldd r24,Z+48
 1115 0218 90E0      		ldi r25,lo8(0)
 1116 021a A0E0      		ldi r26,lo8(0)
 1117 021c B0E0      		ldi r27,hi8(0)
 1118 021e E82A      		or r14,r24
 1119 0220 F92A      		or r15,r25
 1120 0222 0A2B      		or r16,r26
 1121 0224 1B2B      		or r17,r27
 1122 0226 8FEF      		ldi r24,lo8(268435455)
 1123 0228 9FEF      		ldi r25,hi8(268435455)
 1124 022a AFEF      		ldi r26,hlo8(268435455)
 1125 022c BFE0      		ldi r27,hhi8(268435455)
 1126               	.LVL97:
 1127               	.L55:
 1128 022e E822      		and r14,r24
 1129 0230 F922      		and r15,r25
 1130 0232 0A23      		and r16,r26
 1131 0234 1B23      		and r17,r27
 1132 0236 00C0      		rjmp .L52
 1133               	.LVL98:
 1134               	.L46:
 1135 0238 31E0      		ldi r19,lo8(1)
 1136 023a E32E      		mov r14,r19
 1137 023c F12C      		mov r15,__zero_reg__
 1138 023e 012D      		mov r16,__zero_reg__
 1139 0240 112D      		mov r17,__zero_reg__
 1140 0242 00C0      		rjmp .L52
 1141               	.LVL99:
 1142               	.L47:
 1143 0244 EE24      		clr r14
 1144 0246 EA94      		dec r14
 1145 0248 FE2C      		mov r15,r14
 1146 024a 8701      		movw r16,r14
 1147               	.LVL100:
 1148               	.L52:
 1149               	.LSM84:
 1150 024c B701      		movw r22,r14
 1151 024e C801      		movw r24,r16
 1152               	/* epilogue start */
 1153 0250 DF91      		pop r29
 1154 0252 CF91      		pop r28
 1155               	.LVL101:
 1156 0254 1F91      		pop r17
 1157 0256 0F91      		pop r16
 1158 0258 FF90      		pop r15
 1159 025a EF90      		pop r14
 1160 025c DF90      		pop r13
 1161 025e CF90      		pop r12
 1162               	.LVL102:
 1163 0260 BF90      		pop r11
 1164 0262 0895      		ret
 1165               	.LFE140:
 1167               		.section	.text.create_chain,"ax",@progbits
 1169               	create_chain:
 1170               	.LFB143:
 1171               	.LSM85:
 1172               	.LVL103:
 1173 0000 4F92      		push r4
 1174 0002 5F92      		push r5
 1175 0004 6F92      		push r6
 1176 0006 7F92      		push r7
 1177 0008 8F92      		push r8
 1178 000a 9F92      		push r9
 1179 000c AF92      		push r10
 1180 000e BF92      		push r11
 1181 0010 CF92      		push r12
 1182 0012 DF92      		push r13
 1183 0014 EF92      		push r14
 1184 0016 FF92      		push r15
 1185 0018 0F93      		push r16
 1186 001a 1F93      		push r17
 1187 001c CF93      		push r28
 1188 001e DF93      		push r29
 1189               	/* prologue: function */
 1190               	/* frame size = 0 */
 1191 0020 EC01      		movw r28,r24
 1192 0022 2A01      		movw r4,r20
 1193 0024 3B01      		movw r6,r22
 1194               	.LSM86:
 1195 0026 4115      		cp r20,__zero_reg__
 1196 0028 5105      		cpc r21,__zero_reg__
 1197 002a 6105      		cpc r22,__zero_reg__
 1198 002c 7105      		cpc r23,__zero_reg__
 1199 002e 01F4      		brne .L57
 1200               	.LVL104:
 1201               	.LSM87:
 1202 0030 8C84      		ldd r8,Y+12
 1203 0032 9D84      		ldd r9,Y+13
 1204 0034 AE84      		ldd r10,Y+14
 1205 0036 BF84      		ldd r11,Y+15
 1206               	.LVL105:
 1207               	.LSM88:
 1208 0038 8114      		cp r8,__zero_reg__
 1209 003a 9104      		cpc r9,__zero_reg__
 1210 003c A104      		cpc r10,__zero_reg__
 1211 003e B104      		cpc r11,__zero_reg__
 1212 0040 01F0      		breq .L58
 1213 0042 888D      		ldd r24,Y+24
 1214 0044 998D      		ldd r25,Y+25
 1215 0046 AA8D      		ldd r26,Y+26
 1216 0048 BB8D      		ldd r27,Y+27
 1217 004a 8816      		cp r8,r24
 1218 004c 9906      		cpc r9,r25
 1219 004e AA06      		cpc r10,r26
 1220 0050 BB06      		cpc r11,r27
 1221 0052 00F4      		brsh .L58
 1222 0054 00C0      		rjmp .L59
 1223               	.LVL106:
 1224               	.L57:
 1225               	.LSM89:
 1226 0056 0E94 0000 		call get_fat
 1227               	.LVL107:
 1228 005a 9B01      		movw r18,r22
 1229 005c AC01      		movw r20,r24
 1230               	.LVL108:
 1231               	.LSM90:
 1232 005e 6230      		cpi r22,lo8(2)
 1233 0060 7105      		cpc r23,__zero_reg__
 1234 0062 8105      		cpc r24,__zero_reg__
 1235 0064 9105      		cpc r25,__zero_reg__
 1236 0066 00F4      		brsh .+2
 1237 0068 00C0      		rjmp .L71
 1238               	.LVL109:
 1239               	.L60:
 1240               	.LSM91:
 1241 006a 888D      		ldd r24,Y+24
 1242 006c 998D      		ldd r25,Y+25
 1243 006e AA8D      		ldd r26,Y+26
 1244 0070 BB8D      		ldd r27,Y+27
 1245 0072 2817      		cp r18,r24
 1246 0074 3907      		cpc r19,r25
 1247 0076 4A07      		cpc r20,r26
 1248 0078 5B07      		cpc r21,r27
 1249 007a 00F4      		brsh .+2
 1250 007c 00C0      		rjmp .L61
 1251               	.LVL110:
 1252 007e 5301      		movw r10,r6
 1253 0080 4201      		movw r8,r4
 1254               	.LVL111:
 1255 0082 00C0      		rjmp .L59
 1256               	.LVL112:
 1257               	.L58:
 1258 0084 01E0      		ldi r16,lo8(1)
 1259 0086 802E      		mov r8,r16
 1260 0088 912C      		mov r9,__zero_reg__
 1261 008a A12C      		mov r10,__zero_reg__
 1262 008c B12C      		mov r11,__zero_reg__
 1263               	.LVL113:
 1264               	.L59:
 1265 008e 7501      		movw r14,r10
 1266 0090 6401      		movw r12,r8
 1267               	.LVL114:
 1268               	.L65:
 1269               	.LSM92:
 1270 0092 0894      		sec
 1271 0094 C11C      		adc r12,__zero_reg__
 1272 0096 D11C      		adc r13,__zero_reg__
 1273 0098 E11C      		adc r14,__zero_reg__
 1274 009a F11C      		adc r15,__zero_reg__
 1275               	.LSM93:
 1276 009c 888D      		ldd r24,Y+24
 1277 009e 998D      		ldd r25,Y+25
 1278 00a0 AA8D      		ldd r26,Y+26
 1279 00a2 BB8D      		ldd r27,Y+27
 1280 00a4 C816      		cp r12,r24
 1281 00a6 D906      		cpc r13,r25
 1282 00a8 EA06      		cpc r14,r26
 1283 00aa FB06      		cpc r15,r27
 1284 00ac 00F0      		brlo .L62
 1285               	.LSM94:
 1286 00ae 22E0      		ldi r18,lo8(2)
 1287 00b0 8216      		cp r8,r18
 1288 00b2 9104      		cpc r9,__zero_reg__
 1289 00b4 A104      		cpc r10,__zero_reg__
 1290 00b6 B104      		cpc r11,__zero_reg__
 1291               	.LVL115:
 1292 00b8 00F4      		brsh .+2
 1293 00ba 00C0      		rjmp .L63
 1294 00bc 12E0      		ldi r17,lo8(2)
 1295 00be C12E      		mov r12,r17
 1296 00c0 D12C      		mov r13,__zero_reg__
 1297 00c2 E12C      		mov r14,__zero_reg__
 1298 00c4 F12C      		mov r15,__zero_reg__
 1299               	.LVL116:
 1300               	.L62:
 1301               	.LSM95:
 1302 00c6 CE01      		movw r24,r28
 1303 00c8 B701      		movw r22,r14
 1304 00ca A601      		movw r20,r12
 1305 00cc 0E94 0000 		call get_fat
 1306               	.LVL117:
 1307 00d0 9B01      		movw r18,r22
 1308 00d2 AC01      		movw r20,r24
 1309               	.LVL118:
 1310               	.LSM96:
 1311 00d4 6115      		cp r22,__zero_reg__
 1312 00d6 7105      		cpc r23,__zero_reg__
 1313 00d8 8105      		cpc r24,__zero_reg__
 1314 00da 9105      		cpc r25,__zero_reg__
 1315 00dc 01F0      		breq .L64
 1316               	.LVL119:
 1317               	.LSM97:
 1318 00de 2F3F      		cpi r18,lo8(-1)
 1319 00e0 8FEF      		ldi r24,hi8(-1)
 1320 00e2 3807      		cpc r19,r24
 1321 00e4 8FEF      		ldi r24,hlo8(-1)
 1322 00e6 4807      		cpc r20,r24
 1323 00e8 8FEF      		ldi r24,hhi8(-1)
 1324 00ea 5807      		cpc r21,r24
 1325 00ec 01F4      		brne .+2
 1326 00ee 00C0      		rjmp .L61
 1327               	.LVL120:
 1328 00f0 2130      		cpi r18,lo8(1)
 1329 00f2 3105      		cpc r19,__zero_reg__
 1330 00f4 4105      		cpc r20,__zero_reg__
 1331 00f6 5105      		cpc r21,__zero_reg__
 1332 00f8 01F4      		brne .+2
 1333 00fa 00C0      		rjmp .L61
 1334               	.LSM98:
 1335 00fc C814      		cp r12,r8
 1336 00fe D904      		cpc r13,r9
 1337 0100 EA04      		cpc r14,r10
 1338 0102 FB04      		cpc r15,r11
 1339 0104 01F4      		brne .L65
 1340 0106 00C0      		rjmp .L63
 1341               	.LVL121:
 1342               	.L64:
 1343 0108 BC2C      		mov r11,r12
 1344 010a AD2C      		mov r10,r13
 1345               	.LVL122:
 1346 010c 9E2C      		mov r9,r14
 1347               	.LVL123:
 1348 010e 8F2C      		mov r8,r15
 1349               	.LVL124:
 1350               	.LSM99:
 1351 0110 CE01      		movw r24,r28
 1352 0112 A601      		movw r20,r12
 1353               	.LVL125:
 1354 0114 B701      		movw r22,r14
 1355               	.LVL126:
 1356 0116 0FEF      		ldi r16,lo8(268435455)
 1357 0118 1FEF      		ldi r17,hi8(268435455)
 1358 011a 2FEF      		ldi r18,hlo8(268435455)
 1359 011c 3FE0      		ldi r19,hhi8(268435455)
 1360 011e 0E94 0000 		call put_fat
 1361               	.LVL127:
 1362               	.LSM100:
 1363 0122 8823      		tst r24
 1364               	.LVL128:
 1365 0124 01F4      		brne .L66
 1366               	.LVL129:
 1367 0126 4114      		cp r4,__zero_reg__
 1368 0128 5104      		cpc r5,__zero_reg__
 1369 012a 6104      		cpc r6,__zero_reg__
 1370 012c 7104      		cpc r7,__zero_reg__
 1371 012e 01F0      		breq .L67
 1372               	.LSM101:
 1373 0130 CE01      		movw r24,r28
 1374               	.LVL130:
 1375 0132 B301      		movw r22,r6
 1376 0134 A201      		movw r20,r4
 1377 0136 8601      		movw r16,r12
 1378 0138 9701      		movw r18,r14
 1379 013a 0E94 0000 		call put_fat
 1380               	.LSM102:
 1381 013e 8823      		tst r24
 1382               	.LVL131:
 1383 0140 01F4      		brne .L66
 1384               	.L67:
 1385               	.LSM103:
 1386 0142 BC86      		std Y+12,r11
 1387 0144 AD86      		std Y+13,r10
 1388 0146 9E86      		std Y+14,r9
 1389 0148 8F86      		std Y+15,r8
 1390               	.LSM104:
 1391 014a 8889      		ldd r24,Y+16
 1392 014c 9989      		ldd r25,Y+17
 1393 014e AA89      		ldd r26,Y+18
 1394 0150 BB89      		ldd r27,Y+19
 1395               	.LVL132:
 1396 0152 8F3F      		cpi r24,lo8(-1)
 1397 0154 2FEF      		ldi r18,hi8(-1)
 1398 0156 9207      		cpc r25,r18
 1399 0158 2FEF      		ldi r18,hlo8(-1)
 1400 015a A207      		cpc r26,r18
 1401 015c 2FEF      		ldi r18,hhi8(-1)
 1402 015e B207      		cpc r27,r18
 1403 0160 01F0      		breq .L72
 1404               	.L68:
 1405               	.LSM105:
 1406 0162 0197      		sbiw r24,1
 1407 0164 A109      		sbc r26,__zero_reg__
 1408 0166 B109      		sbc r27,__zero_reg__
 1409 0168 888B      		std Y+16,r24
 1410 016a 998B      		std Y+17,r25
 1411 016c AA8B      		std Y+18,r26
 1412 016e BB8B      		std Y+19,r27
 1413               	.LSM106:
 1414 0170 81E0      		ldi r24,lo8(1)
 1415 0172 8D83      		std Y+5,r24
 1416               	.L72:
 1417 0174 A701      		movw r20,r14
 1418 0176 9601      		movw r18,r12
 1419               	.LVL133:
 1420 0178 00C0      		rjmp .L61
 1421               	.LVL134:
 1422               	.L66:
 1423               	.LSM107:
 1424 017a 8130      		cpi r24,lo8(1)
 1425 017c 01F0      		breq .L69
 1426               	.LVL135:
 1427               	.L71:
 1428 017e 21E0      		ldi r18,lo8(1)
 1429 0180 30E0      		ldi r19,hi8(1)
 1430 0182 40E0      		ldi r20,hlo8(1)
 1431 0184 50E0      		ldi r21,hhi8(1)
 1432               	.LVL136:
 1433 0186 00C0      		rjmp .L61
 1434               	.LVL137:
 1435               	.L69:
 1436 0188 2FEF      		ldi r18,lo8(-1)
 1437 018a 3FEF      		ldi r19,hi8(-1)
 1438 018c 4FEF      		ldi r20,hlo8(-1)
 1439 018e 5FEF      		ldi r21,hhi8(-1)
 1440               	.LVL138:
 1441 0190 00C0      		rjmp .L61
 1442               	.LVL139:
 1443               	.L63:
 1444 0192 20E0      		ldi r18,lo8(0)
 1445 0194 30E0      		ldi r19,hi8(0)
 1446 0196 40E0      		ldi r20,hlo8(0)
 1447 0198 50E0      		ldi r21,hhi8(0)
 1448               	.LVL140:
 1449               	.L61:
 1450               	.LSM108:
 1451 019a B901      		movw r22,r18
 1452               	.LVL141:
 1453 019c CA01      		movw r24,r20
 1454               	.LVL142:
 1455               	/* epilogue start */
 1456 019e DF91      		pop r29
 1457 01a0 CF91      		pop r28
 1458               	.LVL143:
 1459 01a2 1F91      		pop r17
 1460 01a4 0F91      		pop r16
 1461 01a6 FF90      		pop r15
 1462 01a8 EF90      		pop r14
 1463 01aa DF90      		pop r13
 1464 01ac CF90      		pop r12
 1465 01ae BF90      		pop r11
 1466               	.LVL144:
 1467 01b0 AF90      		pop r10
 1468               	.LVL145:
 1469 01b2 9F90      		pop r9
 1470               	.LVL146:
 1471 01b4 8F90      		pop r8
 1472               	.LVL147:
 1473 01b6 7F90      		pop r7
 1474 01b8 6F90      		pop r6
 1475 01ba 5F90      		pop r5
 1476 01bc 4F90      		pop r4
 1477               	.LVL148:
 1478 01be 0895      		ret
 1479               	.LFE143:
 1481               		.section	.text.f_lseek,"ax",@progbits
 1482               	.global	f_lseek
 1484               	f_lseek:
 1485               	.LFB159:
 1486               	.LSM109:
 1487               	.LVL149:
 1488 0000 2F92      		push r2
 1489 0002 3F92      		push r3
 1490 0004 4F92      		push r4
 1491 0006 5F92      		push r5
 1492 0008 6F92      		push r6
 1493 000a 7F92      		push r7
 1494 000c 8F92      		push r8
 1495 000e 9F92      		push r9
 1496 0010 AF92      		push r10
 1497 0012 BF92      		push r11
 1498 0014 CF92      		push r12
 1499 0016 DF92      		push r13
 1500 0018 EF92      		push r14
 1501 001a FF92      		push r15
 1502 001c 0F93      		push r16
 1503 001e 1F93      		push r17
 1504 0020 DF93      		push r29
 1505 0022 CF93      		push r28
 1506 0024 00D0      		rcall .
 1507 0026 00D0      		rcall .
 1508 0028 0F92      		push __tmp_reg__
 1509 002a CDB7      		in r28,__SP_L__
 1510 002c DEB7      		in r29,__SP_H__
 1511               	/* prologue: function */
 1512               	/* frame size = 5 */
 1513 002e 9D83      		std Y+5,r25
 1514 0030 8C83      		std Y+4,r24
 1515 0032 7A01      		movw r14,r20
 1516 0034 8B01      		movw r16,r22
 1517               	.LSM110:
 1518 0036 DC01      		movw r26,r24
 1519 0038 1296      		adiw r26,2
 1520 003a 6D91      		ld r22,X+
 1521 003c 7C91      		ld r23,X
 1522 003e 1397      		sbiw r26,2+1
 1523 0040 8D91      		ld r24,X+
 1524 0042 9C91      		ld r25,X
 1525               	.LVL150:
 1526 0044 0E94 0000 		call validate
 1527               	.LVL151:
 1528 0048 8B83      		std Y+3,r24
 1529               	.LVL152:
 1530               	.LSM111:
 1531 004a 8823      		tst r24
 1532 004c 01F0      		breq .+2
 1533 004e 00C0      		rjmp .L74
 1534               	.LSM112:
 1535 0050 EC81      		ldd r30,Y+4
 1536 0052 FD81      		ldd r31,Y+5
 1537 0054 8481      		ldd r24,Z+4
 1538 0056 87FD      		sbrc r24,7
 1539 0058 00C0      		rjmp .L97
 1540               	.L75:
 1541               	.LBB3:
 1542               	.LSM113:
 1543 005a AC81      		ldd r26,Y+4
 1544 005c BD81      		ldd r27,Y+5
 1545 005e 1A96      		adiw r26,10
 1546 0060 AD90      		ld r10,X+
 1547 0062 BD90      		ld r11,X+
 1548 0064 CD90      		ld r12,X+
 1549 0066 DC90      		ld r13,X
 1550 0068 1D97      		sbiw r26,10+3
 1551               	.LVL153:
 1552 006a AE14      		cp r10,r14
 1553 006c BF04      		cpc r11,r15
 1554 006e C006      		cpc r12,r16
 1555 0070 D106      		cpc r13,r17
 1556 0072 00F4      		brsh .L76
 1557 0074 81FF      		sbrs r24,1
 1558 0076 00C0      		rjmp .L77
 1559               	.L76:
 1560 0078 5701      		movw r10,r14
 1561 007a 6801      		movw r12,r16
 1562               	.L77:
 1563               	.LSM114:
 1564 007c EC81      		ldd r30,Y+4
 1565 007e FD81      		ldd r31,Y+5
 1566 0080 E680      		ldd r14,Z+6
 1567 0082 F780      		ldd r15,Z+7
 1568 0084 0085      		ldd r16,Z+8
 1569 0086 1185      		ldd r17,Z+9
 1570               	.LVL154:
 1571               	.LSM115:
 1572 0088 1682      		std Z+6,__zero_reg__
 1573 008a 1782      		std Z+7,__zero_reg__
 1574 008c 1086      		std Z+8,__zero_reg__
 1575 008e 1186      		std Z+9,__zero_reg__
 1576               	.LSM116:
 1577 0090 A114      		cp r10,__zero_reg__
 1578 0092 B104      		cpc r11,__zero_reg__
 1579 0094 C104      		cpc r12,__zero_reg__
 1580 0096 D104      		cpc r13,__zero_reg__
 1581 0098 01F4      		brne .+2
 1582 009a 00C0      		rjmp .L78
 1583               	.LSM117:
 1584 009c 0190      		ld __tmp_reg__,Z+
 1585 009e F081      		ld r31,Z
 1586 00a0 E02D      		mov r30,__tmp_reg__
 1587 00a2 FA83      		std Y+2,r31
 1588 00a4 E983      		std Y+1,r30
 1589 00a6 6285      		ldd r22,Z+10
 1590 00a8 7385      		ldd r23,Z+11
 1591 00aa 80E0      		ldi r24,lo8(0)
 1592 00ac 90E0      		ldi r25,hi8(0)
 1593 00ae 2281      		ldd r18,Z+2
 1594 00b0 30E0      		ldi r19,lo8(0)
 1595 00b2 40E0      		ldi r20,lo8(0)
 1596 00b4 50E0      		ldi r21,hi8(0)
 1597 00b6 0E94 0000 		call __mulsi3
 1598 00ba 3B01      		movw r6,r22
 1599 00bc 4C01      		movw r8,r24
 1600               	.LVL155:
 1601               	.LSM118:
 1602 00be E114      		cp r14,__zero_reg__
 1603 00c0 F104      		cpc r15,__zero_reg__
 1604 00c2 0105      		cpc r16,__zero_reg__
 1605 00c4 1105      		cpc r17,__zero_reg__
 1606 00c6 01F0      		breq .L79
 1607 00c8 1701      		movw r2,r14
 1608 00ca 2801      		movw r4,r16
 1609 00cc 0894      		sec
 1610 00ce 2108      		sbc r2,__zero_reg__
 1611 00d0 3108      		sbc r3,__zero_reg__
 1612 00d2 4108      		sbc r4,__zero_reg__
 1613 00d4 5108      		sbc r5,__zero_reg__
 1614 00d6 C601      		movw r24,r12
 1615 00d8 B501      		movw r22,r10
 1616 00da 6150      		subi r22,lo8(-(-1))
 1617 00dc 7040      		sbci r23,hi8(-(-1))
 1618 00de 8040      		sbci r24,hlo8(-(-1))
 1619 00e0 9040      		sbci r25,hhi8(-(-1))
 1620 00e2 A401      		movw r20,r8
 1621 00e4 9301      		movw r18,r6
 1622 00e6 0E94 0000 		call __udivmodsi4
 1623 00ea 7901      		movw r14,r18
 1624 00ec 8A01      		movw r16,r20
 1625               	.LVL156:
 1626 00ee C201      		movw r24,r4
 1627 00f0 B101      		movw r22,r2
 1628 00f2 A401      		movw r20,r8
 1629 00f4 9301      		movw r18,r6
 1630 00f6 0E94 0000 		call __udivmodsi4
 1631 00fa E216      		cp r14,r18
 1632 00fc F306      		cpc r15,r19
 1633 00fe 0407      		cpc r16,r20
 1634 0100 1507      		cpc r17,r21
 1635 0102 00F0      		brlo .L79
 1636               	.LSM119:
 1637 0104 8827      		clr r24
 1638 0106 9927      		clr r25
 1639 0108 DC01      		movw r26,r24
 1640 010a 8619      		sub r24,r6
 1641 010c 9709      		sbc r25,r7
 1642 010e A809      		sbc r26,r8
 1643 0110 B909      		sbc r27,r9
 1644 0112 8221      		and r24,r2
 1645 0114 9321      		and r25,r3
 1646 0116 A421      		and r26,r4
 1647 0118 B521      		and r27,r5
 1648 011a EC81      		ldd r30,Y+4
 1649 011c FD81      		ldd r31,Y+5
 1650 011e 8683      		std Z+6,r24
 1651 0120 9783      		std Z+7,r25
 1652 0122 A087      		std Z+8,r26
 1653 0124 B187      		std Z+9,r27
 1654               	.LSM120:
 1655 0126 A81A      		sub r10,r24
 1656 0128 B90A      		sbc r11,r25
 1657 012a CA0A      		sbc r12,r26
 1658 012c DB0A      		sbc r13,r27
 1659               	.LSM121:
 1660 012e E288      		ldd r14,Z+18
 1661 0130 F388      		ldd r15,Z+19
 1662 0132 0489      		ldd r16,Z+20
 1663 0134 1589      		ldd r17,Z+21
 1664               	.LVL157:
 1665 0136 00C0      		rjmp .L80
 1666               	.LVL158:
 1667               	.L79:
 1668               	.LSM122:
 1669 0138 AC81      		ldd r26,Y+4
 1670 013a BD81      		ldd r27,Y+5
 1671 013c 1E96      		adiw r26,14
 1672 013e ED90      		ld r14,X+
 1673 0140 FD90      		ld r15,X+
 1674 0142 0D91      		ld r16,X+
 1675 0144 1C91      		ld r17,X
 1676 0146 5197      		sbiw r26,14+3
 1677               	.LVL159:
 1678               	.LSM123:
 1679 0148 E114      		cp r14,__zero_reg__
 1680 014a F104      		cpc r15,__zero_reg__
 1681 014c 0105      		cpc r16,__zero_reg__
 1682 014e 1105      		cpc r17,__zero_reg__
 1683 0150 01F4      		brne .L81
 1684               	.LSM124:
 1685 0152 8981      		ldd r24,Y+1
 1686 0154 9A81      		ldd r25,Y+2
 1687 0156 40E0      		ldi r20,lo8(0)
 1688 0158 50E0      		ldi r21,hi8(0)
 1689 015a 60E0      		ldi r22,hlo8(0)
 1690 015c 70E0      		ldi r23,hhi8(0)
 1691 015e 0E94 0000 		call create_chain
 1692 0162 7B01      		movw r14,r22
 1693 0164 8C01      		movw r16,r24
 1694               	.LSM125:
 1695 0166 6130      		cpi r22,lo8(1)
 1696 0168 7105      		cpc r23,__zero_reg__
 1697 016a 8105      		cpc r24,__zero_reg__
 1698 016c 9105      		cpc r25,__zero_reg__
 1699 016e 01F4      		brne .L82
 1700               	.LVL160:
 1701               	.L99:
 1702 0170 EC81      		ldd r30,Y+4
 1703 0172 FD81      		ldd r31,Y+5
 1704 0174 8481      		ldd r24,Z+4
 1705 0176 8068      		ori r24,lo8(-128)
 1706 0178 8483      		std Z+4,r24
 1707               	.LVL161:
 1708               	.L97:
 1709 017a F2E0      		ldi r31,lo8(2)
 1710 017c FB83      		std Y+3,r31
 1711               	.LVL162:
 1712 017e 00C0      		rjmp .L74
 1713               	.LVL163:
 1714               	.L82:
 1715               	.LSM126:
 1716 0180 8FEF      		ldi r24,lo8(-1)
 1717 0182 E816      		cp r14,r24
 1718 0184 8FEF      		ldi r24,hi8(-1)
 1719 0186 F806      		cpc r15,r24
 1720 0188 8FEF      		ldi r24,hlo8(-1)
 1721 018a 0807      		cpc r16,r24
 1722 018c 8FEF      		ldi r24,hhi8(-1)
 1723 018e 1807      		cpc r17,r24
 1724 0190 01F0      		breq .L98
 1725               	.LVL164:
 1726               	.L83:
 1727               	.LSM127:
 1728 0192 EC81      		ldd r30,Y+4
 1729 0194 FD81      		ldd r31,Y+5
 1730 0196 E686      		std Z+14,r14
 1731 0198 F786      		std Z+15,r15
 1732 019a 008B      		std Z+16,r16
 1733 019c 118B      		std Z+17,r17
 1734               	.L81:
 1735               	.LSM128:
 1736 019e AC81      		ldd r26,Y+4
 1737 01a0 BD81      		ldd r27,Y+5
 1738 01a2 5296      		adiw r26,18
 1739 01a4 ED92      		st X+,r14
 1740 01a6 FD92      		st X+,r15
 1741 01a8 0D93      		st X+,r16
 1742 01aa 1C93      		st X,r17
 1743 01ac 5597      		sbiw r26,18+3
 1744               	.L80:
 1745               	.LSM129:
 1746 01ae E114      		cp r14,__zero_reg__
 1747 01b0 F104      		cpc r15,__zero_reg__
 1748 01b2 0105      		cpc r16,__zero_reg__
 1749 01b4 1105      		cpc r17,__zero_reg__
 1750 01b6 01F0      		breq .+2
 1751 01b8 00C0      		rjmp .L96
 1752 01ba 00C0      		rjmp .L78
 1753               	.L91:
 1754               	.LSM130:
 1755 01bc EC81      		ldd r30,Y+4
 1756 01be FD81      		ldd r31,Y+5
 1757 01c0 8481      		ldd r24,Z+4
 1758 01c2 2081      		ld r18,Z
 1759 01c4 3181      		ldd r19,Z+1
 1760 01c6 81FF      		sbrs r24,1
 1761 01c8 00C0      		rjmp .L85
 1762               	.LSM131:
 1763 01ca C901      		movw r24,r18
 1764 01cc B801      		movw r22,r16
 1765 01ce A701      		movw r20,r14
 1766 01d0 0E94 0000 		call create_chain
 1767 01d4 7B01      		movw r14,r22
 1768 01d6 8C01      		movw r16,r24
 1769               	.LSM132:
 1770 01d8 6115      		cp r22,__zero_reg__
 1771 01da 7105      		cpc r23,__zero_reg__
 1772 01dc 8105      		cpc r24,__zero_reg__
 1773 01de 9105      		cpc r25,__zero_reg__
 1774 01e0 01F4      		brne .L86
 1775               	.LVL165:
 1776 01e2 6401      		movw r12,r8
 1777 01e4 5301      		movw r10,r6
 1778 01e6 00C0      		rjmp .L87
 1779               	.LVL166:
 1780               	.L85:
 1781               	.LSM133:
 1782 01e8 C901      		movw r24,r18
 1783 01ea B801      		movw r22,r16
 1784 01ec A701      		movw r20,r14
 1785 01ee 0E94 0000 		call get_fat
 1786 01f2 7B01      		movw r14,r22
 1787 01f4 8C01      		movw r16,r24
 1788               	.LVL167:
 1789               	.L86:
 1790               	.LSM134:
 1791 01f6 FFEF      		ldi r31,lo8(-1)
 1792 01f8 EF16      		cp r14,r31
 1793 01fa FFEF      		ldi r31,hi8(-1)
 1794 01fc FF06      		cpc r15,r31
 1795 01fe FFEF      		ldi r31,hlo8(-1)
 1796 0200 0F07      		cpc r16,r31
 1797 0202 FFEF      		ldi r31,hhi8(-1)
 1798 0204 1F07      		cpc r17,r31
 1799 0206 01F4      		brne .L88
 1800               	.L98:
 1801 0208 AC81      		ldd r26,Y+4
 1802 020a BD81      		ldd r27,Y+5
 1803 020c 1496      		adiw r26,4
 1804 020e 8C91      		ld r24,X
 1805 0210 1497      		sbiw r26,4
 1806 0212 8068      		ori r24,lo8(-128)
 1807 0214 1496      		adiw r26,4
 1808 0216 8C93      		st X,r24
 1809 0218 B1E0      		ldi r27,lo8(1)
 1810 021a BB83      		std Y+3,r27
 1811               	.LVL168:
 1812 021c 00C0      		rjmp .L74
 1813               	.L88:
 1814               	.LSM135:
 1815 021e E2E0      		ldi r30,lo8(2)
 1816 0220 EE16      		cp r14,r30
 1817 0222 F104      		cpc r15,__zero_reg__
 1818 0224 0105      		cpc r16,__zero_reg__
 1819 0226 1105      		cpc r17,__zero_reg__
 1820 0228 00F4      		brsh .+2
 1821 022a 00C0      		rjmp .L99
 1822 022c AC81      		ldd r26,Y+4
 1823 022e BD81      		ldd r27,Y+5
 1824 0230 ED91      		ld r30,X+
 1825 0232 FC91      		ld r31,X
 1826 0234 808D      		ldd r24,Z+24
 1827 0236 918D      		ldd r25,Z+25
 1828 0238 A28D      		ldd r26,Z+26
 1829 023a B38D      		ldd r27,Z+27
 1830 023c E816      		cp r14,r24
 1831 023e F906      		cpc r15,r25
 1832 0240 0A07      		cpc r16,r26
 1833 0242 1B07      		cpc r17,r27
 1834 0244 00F0      		brlo .+2
 1835 0246 00C0      		rjmp .L99
 1836               	.L90:
 1837               	.LSM136:
 1838 0248 AC81      		ldd r26,Y+4
 1839 024a BD81      		ldd r27,Y+5
 1840 024c 5296      		adiw r26,18
 1841 024e ED92      		st X+,r14
 1842 0250 FD92      		st X+,r15
 1843 0252 0D93      		st X+,r16
 1844 0254 1C93      		st X,r17
 1845 0256 5597      		sbiw r26,18+3
 1846               	.LSM137:
 1847 0258 EC81      		ldd r30,Y+4
 1848 025a FD81      		ldd r31,Y+5
 1849 025c 8681      		ldd r24,Z+6
 1850 025e 9781      		ldd r25,Z+7
 1851 0260 A085      		ldd r26,Z+8
 1852 0262 B185      		ldd r27,Z+9
 1853 0264 860D      		add r24,r6
 1854 0266 971D      		adc r25,r7
 1855 0268 A81D      		adc r26,r8
 1856 026a B91D      		adc r27,r9
 1857 026c 8683      		std Z+6,r24
 1858 026e 9783      		std Z+7,r25
 1859 0270 A087      		std Z+8,r26
 1860 0272 B187      		std Z+9,r27
 1861               	.LSM138:
 1862 0274 A618      		sub r10,r6
 1863 0276 B708      		sbc r11,r7
 1864 0278 C808      		sbc r12,r8
 1865 027a D908      		sbc r13,r9
 1866               	.L96:
 1867               	.LSM139:
 1868 027c 6A14      		cp r6,r10
 1869 027e 7B04      		cpc r7,r11
 1870 0280 8C04      		cpc r8,r12
 1871 0282 9D04      		cpc r9,r13
 1872 0284 00F4      		brsh .+2
 1873 0286 00C0      		rjmp .L91
 1874               	.L87:
 1875               	.LSM140:
 1876 0288 EC81      		ldd r30,Y+4
 1877 028a FD81      		ldd r31,Y+5
 1878 028c 8681      		ldd r24,Z+6
 1879 028e 9781      		ldd r25,Z+7
 1880 0290 A085      		ldd r26,Z+8
 1881 0292 B185      		ldd r27,Z+9
 1882 0294 8A0D      		add r24,r10
 1883 0296 9B1D      		adc r25,r11
 1884 0298 AC1D      		adc r26,r12
 1885 029a BD1D      		adc r27,r13
 1886 029c 8683      		std Z+6,r24
 1887 029e 9783      		std Z+7,r25
 1888 02a0 A087      		std Z+8,r26
 1889 02a2 B187      		std Z+9,r27
 1890               	.LSM141:
 1891 02a4 8080      		ld r8,Z
 1892 02a6 9180      		ldd r9,Z+1
 1893 02a8 D401      		movw r26,r8
 1894 02aa 1A96      		adiw r26,10
 1895 02ac 8D91      		ld r24,X+
 1896 02ae 9C91      		ld r25,X
 1897 02b0 1B97      		sbiw r26,10+1
 1898 02b2 1C01      		movw r2,r24
 1899 02b4 4424      		clr r4
 1900 02b6 5524      		clr r5
 1901 02b8 C601      		movw r24,r12
 1902 02ba B501      		movw r22,r10
 1903 02bc A201      		movw r20,r4
 1904 02be 9101      		movw r18,r2
 1905 02c0 0E94 0000 		call __udivmodsi4
 1906 02c4 6115      		cp r22,__zero_reg__
 1907 02c6 7105      		cpc r23,__zero_reg__
 1908 02c8 8105      		cpc r24,__zero_reg__
 1909 02ca 9105      		cpc r25,__zero_reg__
 1910 02cc 01F0      		breq .L78
 1911               	.LSM142:
 1912 02ce C401      		movw r24,r8
 1913 02d0 B801      		movw r22,r16
 1914 02d2 A701      		movw r20,r14
 1915 02d4 0E94 0000 		call clust2sect
 1916 02d8 3B01      		movw r6,r22
 1917 02da 4C01      		movw r8,r24
 1918               	.LVL169:
 1919               	.LSM143:
 1920 02dc 6115      		cp r22,__zero_reg__
 1921 02de 7105      		cpc r23,__zero_reg__
 1922 02e0 8105      		cpc r24,__zero_reg__
 1923 02e2 9105      		cpc r25,__zero_reg__
 1924 02e4 01F4      		brne .+2
 1925 02e6 00C0      		rjmp .L99
 1926               	.LVL170:
 1927               	.L92:
 1928               	.LSM144:
 1929 02e8 C601      		movw r24,r12
 1930 02ea B501      		movw r22,r10
 1931               	.LVL171:
 1932 02ec A201      		movw r20,r4
 1933 02ee 9101      		movw r18,r2
 1934 02f0 0E94 0000 		call __udivmodsi4
 1935 02f4 7901      		movw r14,r18
 1936 02f6 8A01      		movw r16,r20
 1937               	.LVL172:
 1938 02f8 E60C      		add r14,r6
 1939 02fa F71C      		adc r15,r7
 1940 02fc 081D      		adc r16,r8
 1941 02fe 191D      		adc r17,r9
 1942 0300 00C0      		rjmp .L93
 1943               	.LVL173:
 1944               	.L78:
 1945 0302 EE24      		clr r14
 1946 0304 FF24      		clr r15
 1947 0306 8701      		movw r16,r14
 1948               	.LVL174:
 1949               	.L93:
 1950               	.LSM145:
 1951 0308 AC81      		ldd r26,Y+4
 1952 030a BD81      		ldd r27,Y+5
 1953 030c ED91      		ld r30,X+
 1954 030e FC91      		ld r31,X
 1955 0310 1197      		sbiw r26,1
 1956 0312 2285      		ldd r18,Z+10
 1957 0314 3385      		ldd r19,Z+11
 1958 0316 40E0      		ldi r20,lo8(0)
 1959 0318 50E0      		ldi r21,hi8(0)
 1960 031a 1696      		adiw r26,6
 1961 031c 6D91      		ld r22,X+
 1962 031e 7D91      		ld r23,X+
 1963 0320 8D91      		ld r24,X+
 1964 0322 9C91      		ld r25,X
 1965 0324 1997      		sbiw r26,6+3
 1966               	.LVL175:
 1967 0326 0E94 0000 		call __udivmodsi4
 1968 032a 6115      		cp r22,__zero_reg__
 1969 032c 7105      		cpc r23,__zero_reg__
 1970 032e 8105      		cpc r24,__zero_reg__
 1971 0330 9105      		cpc r25,__zero_reg__
 1972 0332 01F0      		breq .L94
 1973 0334 EC81      		ldd r30,Y+4
 1974 0336 FD81      		ldd r31,Y+5
 1975 0338 8689      		ldd r24,Z+22
 1976 033a 9789      		ldd r25,Z+23
 1977 033c A08D      		ldd r26,Z+24
 1978 033e B18D      		ldd r27,Z+25
 1979 0340 E816      		cp r14,r24
 1980 0342 F906      		cpc r15,r25
 1981 0344 0A07      		cpc r16,r26
 1982 0346 1B07      		cpc r17,r27
 1983 0348 01F0      		breq .L94
 1984               	.LSM146:
 1985 034a E68A      		std Z+22,r14
 1986 034c F78A      		std Z+23,r15
 1987 034e 008F      		std Z+24,r16
 1988 0350 118F      		std Z+25,r17
 1989               	.L94:
 1990               	.LSM147:
 1991 0352 EC81      		ldd r30,Y+4
 1992 0354 FD81      		ldd r31,Y+5
 1993 0356 2681      		ldd r18,Z+6
 1994 0358 3781      		ldd r19,Z+7
 1995 035a 4085      		ldd r20,Z+8
 1996 035c 5185      		ldd r21,Z+9
 1997 035e 8285      		ldd r24,Z+10
 1998 0360 9385      		ldd r25,Z+11
 1999 0362 A485      		ldd r26,Z+12
 2000 0364 B585      		ldd r27,Z+13
 2001 0366 8217      		cp r24,r18
 2002 0368 9307      		cpc r25,r19
 2003 036a A407      		cpc r26,r20
 2004 036c B507      		cpc r27,r21
 2005 036e 00F4      		brsh .L74
 2006               	.LSM148:
 2007 0370 2287      		std Z+10,r18
 2008 0372 3387      		std Z+11,r19
 2009 0374 4487      		std Z+12,r20
 2010 0376 5587      		std Z+13,r21
 2011               	.LSM149:
 2012 0378 8481      		ldd r24,Z+4
 2013 037a 8062      		ori r24,lo8(32)
 2014 037c 8483      		std Z+4,r24
 2015               	.LVL176:
 2016               	.L74:
 2017               	.LBE3:
 2018               	.LSM150:
 2019 037e 8B81      		ldd r24,Y+3
 2020               	/* epilogue start */
 2021 0380 0F90      		pop __tmp_reg__
 2022 0382 0F90      		pop __tmp_reg__
 2023 0384 0F90      		pop __tmp_reg__
 2024 0386 0F90      		pop __tmp_reg__
 2025 0388 0F90      		pop __tmp_reg__
 2026 038a CF91      		pop r28
 2027 038c DF91      		pop r29
 2028 038e 1F91      		pop r17
 2029 0390 0F91      		pop r16
 2030 0392 FF90      		pop r15
 2031 0394 EF90      		pop r14
 2032               	.LVL177:
 2033 0396 DF90      		pop r13
 2034 0398 CF90      		pop r12
 2035 039a BF90      		pop r11
 2036 039c AF90      		pop r10
 2037               	.LVL178:
 2038 039e 9F90      		pop r9
 2039 03a0 8F90      		pop r8
 2040 03a2 7F90      		pop r7
 2041 03a4 6F90      		pop r6
 2042               	.LVL179:
 2043 03a6 5F90      		pop r5
 2044 03a8 4F90      		pop r4
 2045 03aa 3F90      		pop r3
 2046 03ac 2F90      		pop r2
 2047 03ae 0895      		ret
 2048               	.LFE159:
 2050               		.section	.text.dir_sdi,"ax",@progbits
 2052               	dir_sdi:
 2053               	.LFB144:
 2054               	.LSM151:
 2055               	.LVL180:
 2056 0000 CF92      		push r12
 2057 0002 DF92      		push r13
 2058 0004 EF92      		push r14
 2059 0006 FF92      		push r15
 2060 0008 0F93      		push r16
 2061 000a 1F93      		push r17
 2062 000c CF93      		push r28
 2063 000e DF93      		push r29
 2064               	/* prologue: function */
 2065               	/* frame size = 0 */
 2066 0010 7C01      		movw r14,r24
 2067 0012 6B01      		movw r12,r22
 2068               	.LSM152:
 2069 0014 DC01      		movw r26,r24
 2070 0016 1596      		adiw r26,4+1
 2071 0018 7C93      		st X,r23
 2072 001a 6E93      		st -X,r22
 2073 001c 1497      		sbiw r26,4
 2074               	.LSM153:
 2075 001e 1696      		adiw r26,6
 2076 0020 4D91      		ld r20,X+
 2077 0022 5D91      		ld r21,X+
 2078 0024 6D91      		ld r22,X+
 2079 0026 7C91      		ld r23,X
 2080 0028 1997      		sbiw r26,6+3
 2081               	.LVL181:
 2082               	.LSM154:
 2083 002a 4130      		cpi r20,lo8(1)
 2084 002c 5105      		cpc r21,__zero_reg__
 2085 002e 6105      		cpc r22,__zero_reg__
 2086 0030 7105      		cpc r23,__zero_reg__
 2087 0032 01F4      		brne .+2
 2088 0034 00C0      		rjmp .L101
 2089 0036 ED91      		ld r30,X+
 2090 0038 FC91      		ld r31,X
 2091 003a 808D      		ldd r24,Z+24
 2092 003c 918D      		ldd r25,Z+25
 2093 003e A28D      		ldd r26,Z+26
 2094 0040 B38D      		ldd r27,Z+27
 2095               	.LVL182:
 2096 0042 4817      		cp r20,r24
 2097 0044 5907      		cpc r21,r25
 2098 0046 6A07      		cpc r22,r26
 2099 0048 7B07      		cpc r23,r27
 2100 004a 00F0      		brlo .+2
 2101 004c 00C0      		rjmp .L101
 2102               	.LSM155:
 2103 004e 4115      		cp r20,__zero_reg__
 2104 0050 5105      		cpc r21,__zero_reg__
 2105 0052 6105      		cpc r22,__zero_reg__
 2106 0054 7105      		cpc r23,__zero_reg__
 2107 0056 01F4      		brne .L102
 2108 0058 8081      		ld r24,Z
 2109 005a 8330      		cpi r24,lo8(3)
 2110 005c 01F4      		brne .L103
 2111               	.LSM156:
 2112 005e 44A1      		ldd r20,Z+36
 2113 0060 55A1      		ldd r21,Z+37
 2114 0062 66A1      		ldd r22,Z+38
 2115 0064 77A1      		ldd r23,Z+39
 2116               	.LSM157:
 2117 0066 4115      		cp r20,__zero_reg__
 2118 0068 5105      		cpc r21,__zero_reg__
 2119 006a 6105      		cpc r22,__zero_reg__
 2120 006c 7105      		cpc r23,__zero_reg__
 2121 006e 01F4      		brne .L102
 2122               	.L103:
 2123               	.LSM158:
 2124 0070 F701      		movw r30,r14
 2125 0072 1286      		std Z+10,__zero_reg__
 2126 0074 1386      		std Z+11,__zero_reg__
 2127 0076 1486      		std Z+12,__zero_reg__
 2128 0078 1586      		std Z+13,__zero_reg__
 2129               	.LSM159:
 2130 007a 0190      		ld __tmp_reg__,Z+
 2131 007c F081      		ld r31,Z
 2132 007e E02D      		mov r30,__tmp_reg__
 2133 0080 8085      		ldd r24,Z+8
 2134 0082 9185      		ldd r25,Z+9
 2135 0084 C816      		cp r12,r24
 2136 0086 D906      		cpc r13,r25
 2137 0088 00F0      		brlo .+2
 2138 008a 00C0      		rjmp .L101
 2139               	.LVL183:
 2140               	.LSM160:
 2141 008c 6285      		ldd r22,Z+10
 2142 008e 7385      		ldd r23,Z+11
 2143 0090 A5E0      		ldi r26,5
 2144 0092 7695      	1:	lsr r23
 2145 0094 6795      		ror r22
 2146 0096 AA95      		dec r26
 2147 0098 01F4      		brne 1b
 2148 009a C601      		movw r24,r12
 2149 009c 0E94 0000 		call __udivmodhi4
 2150 00a0 80E0      		ldi r24,lo8(0)
 2151 00a2 90E0      		ldi r25,hi8(0)
 2152 00a4 24A1      		ldd r18,Z+36
 2153 00a6 35A1      		ldd r19,Z+37
 2154 00a8 46A1      		ldd r20,Z+38
 2155 00aa 57A1      		ldd r21,Z+39
 2156 00ac 620F      		add r22,r18
 2157 00ae 731F      		adc r23,r19
 2158 00b0 841F      		adc r24,r20
 2159 00b2 951F      		adc r25,r21
 2160 00b4 D701      		movw r26,r14
 2161 00b6 1E96      		adiw r26,14
 2162 00b8 6D93      		st X+,r22
 2163 00ba 7D93      		st X+,r23
 2164 00bc 8D93      		st X+,r24
 2165 00be 9C93      		st X,r25
 2166 00c0 5197      		sbiw r26,14+3
 2167 00c2 00C0      		rjmp .L104
 2168               	.LVL184:
 2169               	.L102:
 2170               	.LSM161:
 2171 00c4 2281      		ldd r18,Z+2
 2172 00c6 30E0      		ldi r19,lo8(0)
 2173 00c8 8285      		ldd r24,Z+10
 2174 00ca 9385      		ldd r25,Z+11
 2175 00cc E5E0      		ldi r30,5
 2176 00ce 9695      	1:	lsr r25
 2177 00d0 8795      		ror r24
 2178 00d2 EA95      		dec r30
 2179 00d4 01F4      		brne 1b
 2180 00d6 289F      		mul r18,r24
 2181 00d8 8001      		movw r16,r0
 2182 00da 299F      		mul r18,r25
 2183 00dc 100D      		add r17,r0
 2184 00de 389F      		mul r19,r24
 2185 00e0 100D      		add r17,r0
 2186 00e2 1124      		clr r1
 2187               	.LVL185:
 2188 00e4 00C0      		rjmp .L105
 2189               	.LVL186:
 2190               	.L108:
 2191               	.LSM162:
 2192 00e6 CE01      		movw r24,r28
 2193 00e8 0E94 0000 		call get_fat
 2194               	.LVL187:
 2195 00ec AB01      		movw r20,r22
 2196 00ee BC01      		movw r22,r24
 2197               	.LVL188:
 2198               	.LSM163:
 2199 00f0 4F3F      		cpi r20,lo8(-1)
 2200 00f2 BFEF      		ldi r27,hi8(-1)
 2201 00f4 5B07      		cpc r21,r27
 2202 00f6 BFEF      		ldi r27,hlo8(-1)
 2203 00f8 6B07      		cpc r22,r27
 2204 00fa BFEF      		ldi r27,hhi8(-1)
 2205 00fc 7B07      		cpc r23,r27
 2206 00fe 01F4      		brne .L106
 2207 0100 81E0      		ldi r24,lo8(1)
 2208 0102 00C0      		rjmp .L107
 2209               	.L106:
 2210               	.LSM164:
 2211 0104 4230      		cpi r20,lo8(2)
 2212 0106 5105      		cpc r21,__zero_reg__
 2213 0108 6105      		cpc r22,__zero_reg__
 2214 010a 7105      		cpc r23,__zero_reg__
 2215 010c 00F4      		brsh .+2
 2216 010e 00C0      		rjmp .L101
 2217 0110 D701      		movw r26,r14
 2218 0112 ED91      		ld r30,X+
 2219 0114 FC91      		ld r31,X
 2220 0116 808D      		ldd r24,Z+24
 2221 0118 918D      		ldd r25,Z+25
 2222 011a A28D      		ldd r26,Z+26
 2223 011c B38D      		ldd r27,Z+27
 2224 011e 4817      		cp r20,r24
 2225 0120 5907      		cpc r21,r25
 2226 0122 6A07      		cpc r22,r26
 2227 0124 7B07      		cpc r23,r27
 2228 0126 00F0      		brlo .+2
 2229 0128 00C0      		rjmp .L101
 2230               	.LSM165:
 2231 012a C01A      		sub r12,r16
 2232 012c D10A      		sbc r13,r17
 2233               	.LVL189:
 2234               	.L105:
 2235 012e F701      		movw r30,r14
 2236 0130 C081      		ld r28,Z
 2237 0132 D181      		ldd r29,Z+1
 2238               	.LSM166:
 2239 0134 C016      		cp r12,r16
 2240 0136 D106      		cpc r13,r17
 2241 0138 00F4      		brsh .L108
 2242               	.LSM167:
 2243 013a D701      		movw r26,r14
 2244 013c 1A96      		adiw r26,10
 2245 013e 4D93      		st X+,r20
 2246 0140 5D93      		st X+,r21
 2247 0142 6D93      		st X+,r22
 2248 0144 7C93      		st X,r23
 2249 0146 1D97      		sbiw r26,10+3
 2250               	.LSM168:
 2251 0148 CE01      		movw r24,r28
 2252 014a 0E94 0000 		call clust2sect
 2253               	.LVL190:
 2254 014e 8B01      		movw r16,r22
 2255 0150 9C01      		movw r18,r24
 2256               	.LVL191:
 2257 0152 6A85      		ldd r22,Y+10
 2258 0154 7B85      		ldd r23,Y+11
 2259 0156 45E0      		ldi r20,5
 2260 0158 7695      	1:	lsr r23
 2261 015a 6795      		ror r22
 2262 015c 4A95      		dec r20
 2263 015e 01F4      		brne 1b
 2264 0160 C601      		movw r24,r12
 2265               	.LVL192:
 2266 0162 0E94 0000 		call __udivmodhi4
 2267 0166 80E0      		ldi r24,lo8(0)
 2268 0168 90E0      		ldi r25,hi8(0)
 2269 016a 600F      		add r22,r16
 2270 016c 711F      		adc r23,r17
 2271 016e 821F      		adc r24,r18
 2272 0170 931F      		adc r25,r19
 2273 0172 F701      		movw r30,r14
 2274 0174 6687      		std Z+14,r22
 2275 0176 7787      		std Z+15,r23
 2276 0178 808B      		std Z+16,r24
 2277 017a 918B      		std Z+17,r25
 2278               	.LVL193:
 2279               	.L104:
 2280               	.LSM169:
 2281 017c D701      		movw r26,r14
 2282 017e ED91      		ld r30,X+
 2283 0180 FC91      		ld r31,X
 2284 0182 6285      		ldd r22,Z+10
 2285 0184 7385      		ldd r23,Z+11
 2286 0186 35E0      		ldi r19,5
 2287 0188 7695      	1:	lsr r23
 2288 018a 6795      		ror r22
 2289 018c 3A95      		dec r19
 2290 018e 01F4      		brne 1b
 2291 0190 C601      		movw r24,r12
 2292 0192 0E94 0000 		call __udivmodhi4
 2293 0196 25E0      		ldi r18,5
 2294 0198 880F      	1:	lsl r24
 2295 019a 991F      		rol r25
 2296 019c 2A95      		dec r18
 2297 019e 01F4      		brne 1b
 2298 01a0 C096      		adiw r24,48
 2299 01a2 E80F      		add r30,r24
 2300 01a4 F91F      		adc r31,r25
 2301 01a6 D701      		movw r26,r14
 2302 01a8 5396      		adiw r26,18+1
 2303 01aa FC93      		st X,r31
 2304 01ac EE93      		st -X,r30
 2305 01ae 5297      		sbiw r26,18
 2306 01b0 80E0      		ldi r24,lo8(0)
 2307 01b2 00C0      		rjmp .L107
 2308               	.LVL194:
 2309               	.L101:
 2310               	.LSM170:
 2311 01b4 82E0      		ldi r24,lo8(2)
 2312               	.L107:
 2313               	/* epilogue start */
 2314               	.LSM171:
 2315 01b6 DF91      		pop r29
 2316 01b8 CF91      		pop r28
 2317 01ba 1F91      		pop r17
 2318 01bc 0F91      		pop r16
 2319               	.LVL195:
 2320 01be FF90      		pop r15
 2321 01c0 EF90      		pop r14
 2322               	.LVL196:
 2323 01c2 DF90      		pop r13
 2324 01c4 CF90      		pop r12
 2325               	.LVL197:
 2326 01c6 0895      		ret
 2327               	.LFE144:
 2329               		.section	.text.f_write,"ax",@progbits
 2330               	.global	f_write
 2332               	f_write:
 2333               	.LFB156:
 2334               	.LSM172:
 2335               	.LVL198:
 2336 0000 2F92      		push r2
 2337 0002 3F92      		push r3
 2338 0004 4F92      		push r4
 2339 0006 5F92      		push r5
 2340 0008 6F92      		push r6
 2341 000a 7F92      		push r7
 2342 000c 8F92      		push r8
 2343 000e 9F92      		push r9
 2344 0010 AF92      		push r10
 2345 0012 BF92      		push r11
 2346 0014 CF92      		push r12
 2347 0016 DF92      		push r13
 2348 0018 EF92      		push r14
 2349 001a FF92      		push r15
 2350 001c 0F93      		push r16
 2351 001e 1F93      		push r17
 2352 0020 DF93      		push r29
 2353 0022 CF93      		push r28
 2354 0024 CDB7      		in r28,__SP_L__
 2355 0026 DEB7      		in r29,__SP_H__
 2356 0028 2797      		sbiw r28,7
 2357 002a 0FB6      		in __tmp_reg__,__SREG__
 2358 002c F894      		cli
 2359 002e DEBF      		out __SP_H__,r29
 2360 0030 0FBE      		out __SREG__,__tmp_reg__
 2361 0032 CDBF      		out __SP_L__,r28
 2362               	/* prologue: function */
 2363               	/* frame size = 7 */
 2364 0034 9F83      		std Y+7,r25
 2365 0036 8E83      		std Y+6,r24
 2366 0038 062F      		mov r16,r22
 2367 003a F72E      		mov r15,r23
 2368               	.LVL199:
 2369 003c 1A01      		movw r2,r20
 2370 003e 3D83      		std Y+5,r19
 2371 0040 2C83      		std Y+4,r18
 2372               	.LSM173:
 2373 0042 D901      		movw r26,r18
 2374 0044 1D92      		st X+,__zero_reg__
 2375 0046 1C92      		st X,__zero_reg__
 2376               	.LSM174:
 2377 0048 FC01      		movw r30,r24
 2378 004a 6281      		ldd r22,Z+2
 2379 004c 7381      		ldd r23,Z+3
 2380               	.LVL200:
 2381 004e 8081      		ld r24,Z
 2382 0050 9181      		ldd r25,Z+1
 2383               	.LVL201:
 2384 0052 0E94 0000 		call validate
 2385               	.LVL202:
 2386 0056 8B83      		std Y+3,r24
 2387               	.LVL203:
 2388               	.LSM175:
 2389 0058 8823      		tst r24
 2390 005a 01F0      		breq .+2
 2391 005c 00C0      		rjmp .L111
 2392               	.LSM176:
 2393 005e AE81      		ldd r26,Y+6
 2394 0060 BF81      		ldd r27,Y+7
 2395 0062 1496      		adiw r26,4
 2396 0064 8C91      		ld r24,X
 2397 0066 87FF      		sbrs r24,7
 2398 0068 00C0      		rjmp .L112
 2399 006a B2E0      		ldi r27,lo8(2)
 2400 006c 00C0      		rjmp .L138
 2401               	.L112:
 2402               	.LSM177:
 2403 006e 81FD      		sbrc r24,1
 2404 0070 00C0      		rjmp .L113
 2405 0072 E7E0      		ldi r30,lo8(7)
 2406 0074 EB83      		std Y+3,r30
 2407               	.LVL204:
 2408 0076 00C0      		rjmp .L111
 2409               	.L113:
 2410               	.LSM178:
 2411 0078 AE81      		ldd r26,Y+6
 2412 007a BF81      		ldd r27,Y+7
 2413 007c 1A96      		adiw r26,10
 2414 007e 2D91      		ld r18,X+
 2415 0080 3D91      		ld r19,X+
 2416 0082 4D91      		ld r20,X+
 2417 0084 5C91      		ld r21,X
 2418 0086 1D97      		sbiw r26,10+3
 2419 0088 C101      		movw r24,r2
 2420 008a A0E0      		ldi r26,lo8(0)
 2421 008c B0E0      		ldi r27,hi8(0)
 2422               	.LVL205:
 2423 008e 820F      		add r24,r18
 2424 0090 931F      		adc r25,r19
 2425 0092 A41F      		adc r26,r20
 2426 0094 B51F      		adc r27,r21
 2427               	.LVL206:
 2428 0096 8217      		cp r24,r18
 2429 0098 9307      		cpc r25,r19
 2430 009a A407      		cpc r26,r20
 2431 009c B507      		cpc r27,r21
 2432 009e 00F4      		brsh .L114
 2433 00a0 2224      		clr r2
 2434 00a2 3324      		clr r3
 2435               	.LVL207:
 2436               	.L114:
 2437               	.LSM179:
 2438 00a4 802F      		mov r24,r16
 2439               	.LVL208:
 2440 00a6 9F2D      		mov r25,r15
 2441               	.LVL209:
 2442 00a8 9C01      		movw r18,r24
 2443               	.LVL210:
 2444 00aa 3A83      		std Y+2,r19
 2445 00ac 2983      		std Y+1,r18
 2446               	.LVL211:
 2447 00ae 00C0      		rjmp .L115
 2448               	.LVL212:
 2449               	.L135:
 2450               	.LSM180:
 2451 00b0 EE81      		ldd r30,Y+6
 2452 00b2 FF81      		ldd r31,Y+7
 2453 00b4 C680      		ldd r12,Z+6
 2454 00b6 D780      		ldd r13,Z+7
 2455 00b8 E084      		ldd r14,Z+8
 2456 00ba F184      		ldd r15,Z+9
 2457 00bc 6080      		ld r6,Z
 2458 00be 7180      		ldd r7,Z+1
 2459               	.LVL213:
 2460 00c0 D301      		movw r26,r6
 2461               	.LVL214:
 2462 00c2 1A96      		adiw r26,10
 2463 00c4 8D91      		ld r24,X+
 2464 00c6 9C91      		ld r25,X
 2465 00c8 1B97      		sbiw r26,10+1
 2466 00ca 4C01      		movw r8,r24
 2467 00cc AA24      		clr r10
 2468 00ce BB24      		clr r11
 2469 00d0 C701      		movw r24,r14
 2470 00d2 B601      		movw r22,r12
 2471 00d4 A501      		movw r20,r10
 2472 00d6 9401      		movw r18,r8
 2473 00d8 0E94 0000 		call __udivmodsi4
 2474 00dc 6115      		cp r22,__zero_reg__
 2475 00de 7105      		cpc r23,__zero_reg__
 2476 00e0 8105      		cpc r24,__zero_reg__
 2477 00e2 9105      		cpc r25,__zero_reg__
 2478 00e4 01F0      		breq .+2
 2479 00e6 00C0      		rjmp .L116
 2480               	.LSM181:
 2481 00e8 C701      		movw r24,r14
 2482 00ea B601      		movw r22,r12
 2483 00ec A501      		movw r20,r10
 2484 00ee 9401      		movw r18,r8
 2485 00f0 0E94 0000 		call __udivmodsi4
 2486 00f4 F301      		movw r30,r6
 2487 00f6 0281      		ldd r16,Z+2
 2488               	.LVL215:
 2489 00f8 0150      		subi r16,lo8(-(-1))
 2490 00fa 0223      		and r16,r18
 2491               	.LSM182:
 2492 00fc 01F0      		breq .+2
 2493 00fe 00C0      		rjmp .L117
 2494               	.LSM183:
 2495 0100 C114      		cp r12,__zero_reg__
 2496 0102 D104      		cpc r13,__zero_reg__
 2497 0104 E104      		cpc r14,__zero_reg__
 2498 0106 F104      		cpc r15,__zero_reg__
 2499 0108 01F4      		brne .L118
 2500               	.LSM184:
 2501 010a AE81      		ldd r26,Y+6
 2502 010c BF81      		ldd r27,Y+7
 2503 010e 1E96      		adiw r26,14
 2504 0110 6D91      		ld r22,X+
 2505 0112 7D91      		ld r23,X+
 2506 0114 8D91      		ld r24,X+
 2507 0116 9C91      		ld r25,X
 2508 0118 5197      		sbiw r26,14+3
 2509               	.LVL216:
 2510               	.LSM185:
 2511 011a 6115      		cp r22,__zero_reg__
 2512 011c 7105      		cpc r23,__zero_reg__
 2513 011e 8105      		cpc r24,__zero_reg__
 2514 0120 9105      		cpc r25,__zero_reg__
 2515 0122 01F4      		brne .L119
 2516               	.LSM186:
 2517 0124 C301      		movw r24,r6
 2518 0126 40E0      		ldi r20,lo8(0)
 2519 0128 50E0      		ldi r21,hi8(0)
 2520 012a 60E0      		ldi r22,hlo8(0)
 2521 012c 70E0      		ldi r23,hhi8(0)
 2522 012e 0E94 0000 		call create_chain
 2523               	.LVL217:
 2524 0132 EE81      		ldd r30,Y+6
 2525 0134 FF81      		ldd r31,Y+7
 2526 0136 6687      		std Z+14,r22
 2527 0138 7787      		std Z+15,r23
 2528 013a 808B      		std Z+16,r24
 2529 013c 918B      		std Z+17,r25
 2530               	.LVL218:
 2531 013e 00C0      		rjmp .L120
 2532               	.LVL219:
 2533               	.L118:
 2534               	.LSM187:
 2535 0140 AE81      		ldd r26,Y+6
 2536 0142 BF81      		ldd r27,Y+7
 2537 0144 5296      		adiw r26,18
 2538 0146 4D91      		ld r20,X+
 2539 0148 5D91      		ld r21,X+
 2540 014a 6D91      		ld r22,X+
 2541 014c 7C91      		ld r23,X
 2542 014e 5597      		sbiw r26,18+3
 2543 0150 C301      		movw r24,r6
 2544 0152 0E94 0000 		call create_chain
 2545               	.LVL220:
 2546               	.L120:
 2547               	.LSM188:
 2548 0156 6115      		cp r22,__zero_reg__
 2549 0158 7105      		cpc r23,__zero_reg__
 2550 015a 8105      		cpc r24,__zero_reg__
 2551 015c 9105      		cpc r25,__zero_reg__
 2552 015e 01F4      		brne .+2
 2553 0160 00C0      		rjmp .L121
 2554               	.LVL221:
 2555               	.L119:
 2556               	.LSM189:
 2557 0162 6130      		cpi r22,lo8(1)
 2558 0164 7105      		cpc r23,__zero_reg__
 2559 0166 8105      		cpc r24,__zero_reg__
 2560 0168 9105      		cpc r25,__zero_reg__
 2561 016a 01F4      		brne .+2
 2562 016c 00C0      		rjmp .L141
 2563               	.L122:
 2564               	.LSM190:
 2565 016e 6F3F      		cpi r22,lo8(-1)
 2566 0170 2FEF      		ldi r18,hi8(-1)
 2567 0172 7207      		cpc r23,r18
 2568 0174 2FEF      		ldi r18,hlo8(-1)
 2569 0176 8207      		cpc r24,r18
 2570 0178 2FEF      		ldi r18,hhi8(-1)
 2571 017a 9207      		cpc r25,r18
 2572 017c 01F4      		brne .L123
 2573               	.LVL222:
 2574               	.L140:
 2575 017e AE81      		ldd r26,Y+6
 2576 0180 BF81      		ldd r27,Y+7
 2577 0182 1496      		adiw r26,4
 2578 0184 8C91      		ld r24,X
 2579 0186 1497      		sbiw r26,4
 2580 0188 8068      		ori r24,lo8(-128)
 2581 018a 1496      		adiw r26,4
 2582 018c 8C93      		st X,r24
 2583 018e B1E0      		ldi r27,lo8(1)
 2584               	.LVL223:
 2585               	.L138:
 2586 0190 BB83      		std Y+3,r27
 2587               	.LVL224:
 2588 0192 00C0      		rjmp .L111
 2589               	.LVL225:
 2590               	.L123:
 2591               	.LSM191:
 2592 0194 EE81      		ldd r30,Y+6
 2593 0196 FF81      		ldd r31,Y+7
 2594 0198 628B      		std Z+18,r22
 2595 019a 738B      		std Z+19,r23
 2596 019c 848B      		std Z+20,r24
 2597 019e 958B      		std Z+21,r25
 2598               	.L117:
 2599               	.LSM192:
 2600 01a0 AE81      		ldd r26,Y+6
 2601 01a2 BF81      		ldd r27,Y+7
 2602 01a4 ED91      		ld r30,X+
 2603 01a6 FC91      		ld r31,X
 2604 01a8 1197      		sbiw r26,1
 2605 01aa 24A5      		ldd r18,Z+44
 2606 01ac 35A5      		ldd r19,Z+45
 2607 01ae 46A5      		ldd r20,Z+46
 2608 01b0 57A5      		ldd r21,Z+47
 2609 01b2 5696      		adiw r26,22
 2610 01b4 CD90      		ld r12,X+
 2611 01b6 DD90      		ld r13,X+
 2612 01b8 ED90      		ld r14,X+
 2613 01ba FC90      		ld r15,X
 2614 01bc 5997      		sbiw r26,22+3
 2615 01be 2C15      		cp r18,r12
 2616 01c0 3D05      		cpc r19,r13
 2617 01c2 4E05      		cpc r20,r14
 2618 01c4 5F05      		cpc r21,r15
 2619 01c6 01F4      		brne .L124
 2620 01c8 CF01      		movw r24,r30
 2621 01ca 40E0      		ldi r20,lo8(0)
 2622 01cc 50E0      		ldi r21,hi8(0)
 2623 01ce 60E0      		ldi r22,hlo8(0)
 2624 01d0 70E0      		ldi r23,hhi8(0)
 2625 01d2 0E94 0000 		call move_window
 2626               	.LVL226:
 2627 01d6 8823      		tst r24
 2628 01d8 01F0      		breq .+2
 2629 01da 00C0      		rjmp .L142
 2630               	.LVL227:
 2631               	.L124:
 2632               	.LSM193:
 2633 01dc AE81      		ldd r26,Y+6
 2634 01de BF81      		ldd r27,Y+7
 2635 01e0 ED90      		ld r14,X+
 2636 01e2 FC90      		ld r15,X
 2637 01e4 1197      		sbiw r26,1
 2638               	.LVL228:
 2639 01e6 5296      		adiw r26,18
 2640 01e8 4D91      		ld r20,X+
 2641 01ea 5D91      		ld r21,X+
 2642 01ec 6D91      		ld r22,X+
 2643 01ee 7C91      		ld r23,X
 2644 01f0 5597      		sbiw r26,18+3
 2645 01f2 C701      		movw r24,r14
 2646 01f4 0E94 0000 		call clust2sect
 2647               	.LVL229:
 2648               	.LSM194:
 2649 01f8 6115      		cp r22,__zero_reg__
 2650 01fa 7105      		cpc r23,__zero_reg__
 2651 01fc 8105      		cpc r24,__zero_reg__
 2652 01fe 9105      		cpc r25,__zero_reg__
 2653               	.LVL230:
 2654 0200 01F4      		brne .L125
 2655               	.LVL231:
 2656               	.L141:
 2657 0202 EE81      		ldd r30,Y+6
 2658 0204 FF81      		ldd r31,Y+7
 2659 0206 8481      		ldd r24,Z+4
 2660 0208 8068      		ori r24,lo8(-128)
 2661 020a 8483      		std Z+4,r24
 2662 020c F2E0      		ldi r31,lo8(2)
 2663 020e 00C0      		rjmp .L139
 2664               	.LVL232:
 2665               	.L125:
 2666               	.LSM195:
 2667 0210 3B01      		movw r6,r22
 2668 0212 4C01      		movw r8,r24
 2669 0214 600E      		add r6,r16
 2670 0216 711C      		adc r7,__zero_reg__
 2671 0218 811C      		adc r8,__zero_reg__
 2672 021a 911C      		adc r9,__zero_reg__
 2673               	.LVL233:
 2674               	.LSM196:
 2675 021c D701      		movw r26,r14
 2676 021e 1A96      		adiw r26,10
 2677 0220 6D91      		ld r22,X+
 2678 0222 7C91      		ld r23,X
 2679 0224 1B97      		sbiw r26,10+1
 2680 0226 C101      		movw r24,r2
 2681 0228 0E94 0000 		call __udivmodhi4
 2682 022c 2B01      		movw r4,r22
 2683               	.LSM197:
 2684 022e 6115      		cp r22,__zero_reg__
 2685 0230 7105      		cpc r23,__zero_reg__
 2686 0232 01F4      		brne .+2
 2687 0234 00C0      		rjmp .L126
 2688               	.LVL234:
 2689               	.LSM198:
 2690 0236 F701      		movw r30,r14
 2691 0238 2281      		ldd r18,Z+2
 2692 023a 402F      		mov r20,r16
 2693 023c 50E0      		ldi r21,lo8(0)
 2694               	.LVL235:
 2695 023e CB01      		movw r24,r22
 2696 0240 840F      		add r24,r20
 2697 0242 951F      		adc r25,r21
 2698 0244 30E0      		ldi r19,lo8(0)
 2699 0246 2817      		cp r18,r24
 2700 0248 3907      		cpc r19,r25
 2701 024a 00F4      		brsh .L127
 2702               	.LVL236:
 2703               	.LSM199:
 2704 024c 2901      		movw r4,r18
 2705               	.LVL237:
 2706 024e 441A      		sub r4,r20
 2707 0250 550A      		sbc r5,r21
 2708               	.LVL238:
 2709               	.L127:
 2710               	.LSM200:
 2711 0252 D701      		movw r26,r14
 2712 0254 1196      		adiw r26,1
 2713 0256 8C91      		ld r24,X
 2714 0258 6981      		ldd r22,Y+1
 2715 025a 7A81      		ldd r23,Y+2
 2716 025c A401      		movw r20,r8
 2717 025e 9301      		movw r18,r6
 2718 0260 042D      		mov r16,r4
 2719 0262 0E94 0000 		call disk_write
 2720               	.LVL239:
 2721 0266 8823      		tst r24
 2722 0268 01F0      		breq .+2
 2723 026a 00C0      		rjmp .L142
 2724               	.L128:
 2725               	.LSM201:
 2726 026c AE81      		ldd r26,Y+6
 2727 026e BF81      		ldd r27,Y+7
 2728 0270 AD90      		ld r10,X+
 2729 0272 BC90      		ld r11,X
 2730 0274 F501      		movw r30,r10
 2731 0276 C4A4      		ldd r12,Z+44
 2732 0278 D5A4      		ldd r13,Z+45
 2733 027a E6A4      		ldd r14,Z+46
 2734 027c F7A4      		ldd r15,Z+47
 2735 027e C618      		sub r12,r6
 2736 0280 D708      		sbc r13,r7
 2737 0282 E808      		sbc r14,r8
 2738 0284 F908      		sbc r15,r9
 2739 0286 C201      		movw r24,r4
 2740 0288 A0E0      		ldi r26,lo8(0)
 2741 028a B0E0      		ldi r27,hi8(0)
 2742               	.LVL240:
 2743 028c C816      		cp r12,r24
 2744 028e D906      		cpc r13,r25
 2745 0290 EA06      		cpc r14,r26
 2746 0292 FB06      		cpc r15,r27
 2747 0294 00F4      		brsh .L129
 2748               	.LVL241:
 2749               	.LSM202:
 2750 0296 0285      		ldd r16,Z+10
 2751 0298 1385      		ldd r17,Z+11
 2752 029a 9801      		movw r18,r16
 2753 029c 40E0      		ldi r20,lo8(0)
 2754 029e 50E0      		ldi r21,hi8(0)
 2755 02a0 C701      		movw r24,r14
 2756 02a2 B601      		movw r22,r12
 2757 02a4 0E94 0000 		call __mulsi3
 2758               	.LVL242:
 2759 02a8 2981      		ldd r18,Y+1
 2760 02aa 3A81      		ldd r19,Y+2
 2761 02ac 620F      		add r22,r18
 2762 02ae 731F      		adc r23,r19
 2763 02b0 C501      		movw r24,r10
 2764               	.LVL243:
 2765 02b2 C096      		adiw r24,48
 2766 02b4 A801      		movw r20,r16
 2767 02b6 0E94 0000 		call mem_cpy
 2768               	.LSM203:
 2769 02ba AE81      		ldd r26,Y+6
 2770 02bc BF81      		ldd r27,Y+7
 2771 02be ED91      		ld r30,X+
 2772 02c0 FC91      		ld r31,X
 2773 02c2 1482      		std Z+4,__zero_reg__
 2774               	.LVL244:
 2775               	.L129:
 2776               	.LSM204:
 2777 02c4 AE81      		ldd r26,Y+6
 2778 02c6 BF81      		ldd r27,Y+7
 2779               	.LVL245:
 2780 02c8 ED91      		ld r30,X+
 2781 02ca FC91      		ld r31,X
 2782 02cc 8285      		ldd r24,Z+10
 2783 02ce 9385      		ldd r25,Z+11
 2784 02d0 489E      		mul r4,r24
 2785 02d2 7001      		movw r14,r0
 2786 02d4 499E      		mul r4,r25
 2787 02d6 F00C      		add r15,r0
 2788 02d8 589E      		mul r5,r24
 2789 02da F00C      		add r15,r0
 2790 02dc 1124      		clr r1
 2791               	.LVL246:
 2792 02de 00C0      		rjmp .L130
 2793               	.LVL247:
 2794               	.L126:
 2795               	.LSM205:
 2796 02e0 EE81      		ldd r30,Y+6
 2797 02e2 FF81      		ldd r31,Y+7
 2798 02e4 2681      		ldd r18,Z+6
 2799 02e6 3781      		ldd r19,Z+7
 2800 02e8 4085      		ldd r20,Z+8
 2801 02ea 5185      		ldd r21,Z+9
 2802 02ec 8285      		ldd r24,Z+10
 2803 02ee 9385      		ldd r25,Z+11
 2804 02f0 A485      		ldd r26,Z+12
 2805 02f2 B585      		ldd r27,Z+13
 2806 02f4 2817      		cp r18,r24
 2807 02f6 3907      		cpc r19,r25
 2808 02f8 4A07      		cpc r20,r26
 2809 02fa 5B07      		cpc r21,r27
 2810 02fc 00F0      		brlo .L131
 2811               	.LSM206:
 2812 02fe C701      		movw r24,r14
 2813 0300 40E0      		ldi r20,lo8(0)
 2814 0302 50E0      		ldi r21,hi8(0)
 2815 0304 60E0      		ldi r22,hlo8(0)
 2816 0306 70E0      		ldi r23,hhi8(0)
 2817 0308 0E94 0000 		call move_window
 2818               	.LVL248:
 2819 030c 8823      		tst r24
 2820 030e 01F0      		breq .+2
 2821 0310 00C0      		rjmp .L140
 2822               	.L132:
 2823               	.LSM207:
 2824 0312 AE81      		ldd r26,Y+6
 2825 0314 BF81      		ldd r27,Y+7
 2826 0316 ED91      		ld r30,X+
 2827 0318 FC91      		ld r31,X
 2828 031a 64A6      		std Z+44,r6
 2829 031c 75A6      		std Z+45,r7
 2830 031e 86A6      		std Z+46,r8
 2831 0320 97A6      		std Z+47,r9
 2832               	.LVL249:
 2833               	.L131:
 2834               	.LSM208:
 2835 0322 EE81      		ldd r30,Y+6
 2836 0324 FF81      		ldd r31,Y+7
 2837 0326 668A      		std Z+22,r6
 2838 0328 778A      		std Z+23,r7
 2839 032a 808E      		std Z+24,r8
 2840 032c 918E      		std Z+25,r9
 2841               	.LVL250:
 2842               	.L116:
 2843               	.LSM209:
 2844 032e AE81      		ldd r26,Y+6
 2845 0330 BF81      		ldd r27,Y+7
 2846 0332 1696      		adiw r26,6
 2847 0334 CD90      		ld r12,X+
 2848 0336 DD90      		ld r13,X+
 2849 0338 ED90      		ld r14,X+
 2850 033a FC90      		ld r15,X
 2851 033c 1997      		sbiw r26,6+3
 2852 033e ED91      		ld r30,X+
 2853 0340 FC91      		ld r31,X
 2854 0342 1197      		sbiw r26,1
 2855 0344 A284      		ldd r10,Z+10
 2856 0346 B384      		ldd r11,Z+11
 2857               	.LSM210:
 2858 0348 5696      		adiw r26,22
 2859 034a 4D91      		ld r20,X+
 2860 034c 5D91      		ld r21,X+
 2861 034e 6D91      		ld r22,X+
 2862 0350 7C91      		ld r23,X
 2863 0352 5997      		sbiw r26,22+3
 2864 0354 CF01      		movw r24,r30
 2865 0356 0E94 0000 		call move_window
 2866               	.LVL251:
 2867 035a 8823      		tst r24
 2868 035c 01F0      		breq .L133
 2869               	.L142:
 2870               	.LSM211:
 2871 035e EE81      		ldd r30,Y+6
 2872 0360 FF81      		ldd r31,Y+7
 2873 0362 8481      		ldd r24,Z+4
 2874 0364 8068      		ori r24,lo8(-128)
 2875 0366 8483      		std Z+4,r24
 2876 0368 F1E0      		ldi r31,lo8(1)
 2877               	.LVL252:
 2878               	.L139:
 2879 036a FB83      		std Y+3,r31
 2880               	.LVL253:
 2881 036c 00C0      		rjmp .L111
 2882               	.LVL254:
 2883               	.L133:
 2884               	.LSM212:
 2885 036e 9501      		movw r18,r10
 2886 0370 40E0      		ldi r20,lo8(0)
 2887 0372 50E0      		ldi r21,hi8(0)
 2888 0374 C701      		movw r24,r14
 2889 0376 B601      		movw r22,r12
 2890 0378 0E94 0000 		call __udivmodsi4
 2891 037c 9501      		movw r18,r10
 2892               	.LVL255:
 2893 037e 261B      		sub r18,r22
 2894 0380 370B      		sbc r19,r23
 2895 0382 7101      		movw r14,r2
 2896               	.LVL256:
 2897 0384 2215      		cp r18,r2
 2898 0386 3305      		cpc r19,r3
 2899 0388 00F4      		brsh .L134
 2900               	.LVL257:
 2901 038a 7901      		movw r14,r18
 2902               	.L134:
 2903               	.LSM213:
 2904 038c AE81      		ldd r26,Y+6
 2905 038e BF81      		ldd r27,Y+7
 2906 0390 0D91      		ld r16,X+
 2907 0392 1C91      		ld r17,X
 2908 0394 1197      		sbiw r26,1
 2909               	.LVL258:
 2910 0396 F801      		movw r30,r16
 2911 0398 2285      		ldd r18,Z+10
 2912 039a 3385      		ldd r19,Z+11
 2913               	.LVL259:
 2914 039c 40E0      		ldi r20,lo8(0)
 2915 039e 50E0      		ldi r21,hi8(0)
 2916 03a0 1696      		adiw r26,6
 2917 03a2 6D91      		ld r22,X+
 2918 03a4 7D91      		ld r23,X+
 2919 03a6 8D91      		ld r24,X+
 2920 03a8 9C91      		ld r25,X
 2921 03aa 1997      		sbiw r26,6+3
 2922 03ac 0E94 0000 		call __udivmodsi4
 2923 03b0 605D      		subi r22,lo8(-(48))
 2924 03b2 7F4F      		sbci r23,hi8(-(48))
 2925 03b4 C801      		movw r24,r16
 2926 03b6 860F      		add r24,r22
 2927 03b8 971F      		adc r25,r23
 2928 03ba 6981      		ldd r22,Y+1
 2929 03bc 7A81      		ldd r23,Y+2
 2930 03be A701      		movw r20,r14
 2931 03c0 0E94 0000 		call mem_cpy
 2932               	.LSM214:
 2933 03c4 AE81      		ldd r26,Y+6
 2934 03c6 BF81      		ldd r27,Y+7
 2935 03c8 ED91      		ld r30,X+
 2936 03ca FC91      		ld r31,X
 2937 03cc B1E0      		ldi r27,lo8(1)
 2938 03ce B483      		std Z+4,r27
 2939               	.L130:
 2940               	.LSM215:
 2941 03d0 E981      		ldd r30,Y+1
 2942 03d2 FA81      		ldd r31,Y+2
 2943 03d4 EE0D      		add r30,r14
 2944 03d6 FF1D      		adc r31,r15
 2945 03d8 FA83      		std Y+2,r31
 2946 03da E983      		std Y+1,r30
 2947               	.LVL260:
 2948 03dc C701      		movw r24,r14
 2949 03de A0E0      		ldi r26,lo8(0)
 2950 03e0 B0E0      		ldi r27,hi8(0)
 2951               	.LVL261:
 2952 03e2 EE81      		ldd r30,Y+6
 2953 03e4 FF81      		ldd r31,Y+7
 2954 03e6 2681      		ldd r18,Z+6
 2955 03e8 3781      		ldd r19,Z+7
 2956 03ea 4085      		ldd r20,Z+8
 2957 03ec 5185      		ldd r21,Z+9
 2958 03ee 280F      		add r18,r24
 2959 03f0 391F      		adc r19,r25
 2960 03f2 4A1F      		adc r20,r26
 2961 03f4 5B1F      		adc r21,r27
 2962 03f6 2683      		std Z+6,r18
 2963 03f8 3783      		std Z+7,r19
 2964 03fa 4087      		std Z+8,r20
 2965 03fc 5187      		std Z+9,r21
 2966 03fe EC81      		ldd r30,Y+4
 2967 0400 FD81      		ldd r31,Y+5
 2968 0402 8081      		ld r24,Z
 2969 0404 9181      		ldd r25,Z+1
 2970 0406 8E0D      		add r24,r14
 2971 0408 9F1D      		adc r25,r15
 2972 040a 9183      		std Z+1,r25
 2973 040c 8083      		st Z,r24
 2974 040e 2E18      		sub r2,r14
 2975 0410 3F08      		sbc r3,r15
 2976               	.LVL262:
 2977               	.L115:
 2978               	.LSM216:
 2979 0412 2114      		cp r2,__zero_reg__
 2980 0414 3104      		cpc r3,__zero_reg__
 2981 0416 01F0      		breq .+2
 2982 0418 00C0      		rjmp .L135
 2983               	.LVL263:
 2984               	.L121:
 2985               	.LSM217:
 2986 041a AE81      		ldd r26,Y+6
 2987 041c BF81      		ldd r27,Y+7
 2988               	.LVL264:
 2989 041e 1696      		adiw r26,6
 2990 0420 2D91      		ld r18,X+
 2991 0422 3D91      		ld r19,X+
 2992 0424 4D91      		ld r20,X+
 2993 0426 5C91      		ld r21,X
 2994 0428 1997      		sbiw r26,6+3
 2995 042a 1A96      		adiw r26,10
 2996 042c 8D91      		ld r24,X+
 2997 042e 9D91      		ld r25,X+
 2998 0430 0D90      		ld __tmp_reg__,X+
 2999 0432 BC91      		ld r27,X
 3000 0434 A02D      		mov r26,__tmp_reg__
 3001 0436 8217      		cp r24,r18
 3002 0438 9307      		cpc r25,r19
 3003 043a A407      		cpc r26,r20
 3004 043c B507      		cpc r27,r21
 3005 043e 00F4      		brsh .L136
 3006 0440 EE81      		ldd r30,Y+6
 3007 0442 FF81      		ldd r31,Y+7
 3008 0444 2287      		std Z+10,r18
 3009 0446 3387      		std Z+11,r19
 3010 0448 4487      		std Z+12,r20
 3011 044a 5587      		std Z+13,r21
 3012               	.L136:
 3013               	.LSM218:
 3014 044c AE81      		ldd r26,Y+6
 3015 044e BF81      		ldd r27,Y+7
 3016 0450 1496      		adiw r26,4
 3017 0452 8C91      		ld r24,X
 3018 0454 1497      		sbiw r26,4
 3019 0456 8062      		ori r24,lo8(32)
 3020 0458 1496      		adiw r26,4
 3021 045a 8C93      		st X,r24
 3022               	.LVL265:
 3023               	.L111:
 3024               	.LSM219:
 3025 045c 8B81      		ldd r24,Y+3
 3026               	/* epilogue start */
 3027 045e 2796      		adiw r28,7
 3028 0460 0FB6      		in __tmp_reg__,__SREG__
 3029 0462 F894      		cli
 3030 0464 DEBF      		out __SP_H__,r29
 3031 0466 0FBE      		out __SREG__,__tmp_reg__
 3032 0468 CDBF      		out __SP_L__,r28
 3033 046a CF91      		pop r28
 3034 046c DF91      		pop r29
 3035 046e 1F91      		pop r17
 3036 0470 0F91      		pop r16
 3037               	.LVL266:
 3038 0472 FF90      		pop r15
 3039               	.LVL267:
 3040 0474 EF90      		pop r14
 3041               	.LVL268:
 3042 0476 DF90      		pop r13
 3043 0478 CF90      		pop r12
 3044 047a BF90      		pop r11
 3045 047c AF90      		pop r10
 3046 047e 9F90      		pop r9
 3047 0480 8F90      		pop r8
 3048 0482 7F90      		pop r7
 3049 0484 6F90      		pop r6
 3050               	.LVL269:
 3051 0486 5F90      		pop r5
 3052 0488 4F90      		pop r4
 3053               	.LVL270:
 3054 048a 3F90      		pop r3
 3055 048c 2F90      		pop r2
 3056               	.LVL271:
 3057 048e 0895      		ret
 3058               	.LFE156:
 3060               		.section	.text.dir_next,"ax",@progbits
 3062               	dir_next:
 3063               	.LFB145:
 3064               	.LSM220:
 3065               	.LVL272:
 3066 0000 8F92      		push r8
 3067 0002 9F92      		push r9
 3068 0004 AF92      		push r10
 3069 0006 BF92      		push r11
 3070 0008 CF92      		push r12
 3071 000a DF92      		push r13
 3072 000c EF92      		push r14
 3073 000e FF92      		push r15
 3074 0010 0F93      		push r16
 3075 0012 1F93      		push r17
 3076 0014 CF93      		push r28
 3077 0016 DF93      		push r29
 3078               	/* prologue: function */
 3079               	/* frame size = 0 */
 3080 0018 EC01      		movw r28,r24
 3081 001a 4B01      		movw r8,r22
 3082               	.LSM221:
 3083 001c AC80      		ldd r10,Y+4
 3084 001e BD80      		ldd r11,Y+5
 3085               	.LVL273:
 3086 0020 0894      		sec
 3087 0022 A11C      		adc r10,__zero_reg__
 3088 0024 B11C      		adc r11,__zero_reg__
 3089               	.LSM222:
 3090 0026 A114      		cp r10,__zero_reg__
 3091 0028 B104      		cpc r11,__zero_reg__
 3092 002a 01F4      		brne .+2
 3093 002c 00C0      		rjmp .L144
 3094               	.LVL274:
 3095 002e 0E85      		ldd r16,Y+14
 3096 0030 1F85      		ldd r17,Y+15
 3097 0032 2889      		ldd r18,Y+16
 3098 0034 3989      		ldd r19,Y+17
 3099 0036 0115      		cp r16,__zero_reg__
 3100 0038 1105      		cpc r17,__zero_reg__
 3101 003a 2105      		cpc r18,__zero_reg__
 3102 003c 3105      		cpc r19,__zero_reg__
 3103 003e 01F4      		brne .+2
 3104 0040 00C0      		rjmp .L144
 3105               	.LSM223:
 3106 0042 E881      		ld r30,Y
 3107 0044 F981      		ldd r31,Y+1
 3108 0046 6285      		ldd r22,Z+10
 3109 0048 7385      		ldd r23,Z+11
 3110 004a 95E0      		ldi r25,5
 3111 004c 7695      	1:	lsr r23
 3112 004e 6795      		ror r22
 3113 0050 9A95      		dec r25
 3114 0052 01F4      		brne 1b
 3115 0054 C501      		movw r24,r10
 3116 0056 0E94 0000 		call __udivmodhi4
 3117 005a 892B      		or r24,r25
 3118 005c 01F0      		breq .+2
 3119 005e 00C0      		rjmp .L145
 3120               	.LSM224:
 3121 0060 0F5F      		subi r16,lo8(-(1))
 3122 0062 1F4F      		sbci r17,hi8(-(1))
 3123 0064 2F4F      		sbci r18,hlo8(-(1))
 3124 0066 3F4F      		sbci r19,hhi8(-(1))
 3125 0068 0E87      		std Y+14,r16
 3126 006a 1F87      		std Y+15,r17
 3127 006c 288B      		std Y+16,r18
 3128 006e 398B      		std Y+17,r19
 3129               	.LSM225:
 3130 0070 EA84      		ldd r14,Y+10
 3131 0072 FB84      		ldd r15,Y+11
 3132 0074 0C85      		ldd r16,Y+12
 3133 0076 1D85      		ldd r17,Y+13
 3134 0078 E114      		cp r14,__zero_reg__
 3135 007a F104      		cpc r15,__zero_reg__
 3136 007c 0105      		cpc r16,__zero_reg__
 3137 007e 1105      		cpc r17,__zero_reg__
 3138 0080 01F4      		brne .L146
 3139               	.LSM226:
 3140 0082 8085      		ldd r24,Z+8
 3141 0084 9185      		ldd r25,Z+9
 3142 0086 A816      		cp r10,r24
 3143 0088 B906      		cpc r11,r25
 3144 008a 00F4      		brsh .+2
 3145 008c 00C0      		rjmp .L145
 3146 008e 00C0      		rjmp .L144
 3147               	.L146:
 3148               	.LSM227:
 3149 0090 2281      		ldd r18,Z+2
 3150 0092 30E0      		ldi r19,lo8(0)
 3151 0094 2150      		subi r18,lo8(-(-1))
 3152 0096 3040      		sbci r19,hi8(-(-1))
 3153 0098 6285      		ldd r22,Z+10
 3154 009a 7385      		ldd r23,Z+11
 3155 009c 85E0      		ldi r24,5
 3156 009e 7695      	1:	lsr r23
 3157 00a0 6795      		ror r22
 3158 00a2 8A95      		dec r24
 3159 00a4 01F4      		brne 1b
 3160 00a6 C501      		movw r24,r10
 3161 00a8 0E94 0000 		call __udivmodhi4
 3162 00ac 2623      		and r18,r22
 3163 00ae 3723      		and r19,r23
 3164 00b0 232B      		or r18,r19
 3165 00b2 01F0      		breq .+2
 3166 00b4 00C0      		rjmp .L145
 3167               	.LSM228:
 3168 00b6 CF01      		movw r24,r30
 3169 00b8 B801      		movw r22,r16
 3170 00ba A701      		movw r20,r14
 3171 00bc 0E94 0000 		call get_fat
 3172 00c0 6B01      		movw r12,r22
 3173 00c2 7C01      		movw r14,r24
 3174               	.LVL275:
 3175               	.LSM229:
 3176 00c4 82E0      		ldi r24,lo8(2)
 3177 00c6 C816      		cp r12,r24
 3178 00c8 D104      		cpc r13,__zero_reg__
 3179 00ca E104      		cpc r14,__zero_reg__
 3180 00cc F104      		cpc r15,__zero_reg__
 3181 00ce 00F4      		brsh .+2
 3182 00d0 00C0      		rjmp .L147
 3183               	.LSM230:
 3184 00d2 EFEF      		ldi r30,lo8(-1)
 3185 00d4 CE16      		cp r12,r30
 3186 00d6 EFEF      		ldi r30,hi8(-1)
 3187 00d8 DE06      		cpc r13,r30
 3188 00da EFEF      		ldi r30,hlo8(-1)
 3189 00dc EE06      		cpc r14,r30
 3190 00de EFEF      		ldi r30,hhi8(-1)
 3191 00e0 FE06      		cpc r15,r30
 3192 00e2 01F4      		brne .+2
 3193 00e4 00C0      		rjmp .L148
 3194               	.LSM231:
 3195 00e6 E881      		ld r30,Y
 3196 00e8 F981      		ldd r31,Y+1
 3197 00ea 808D      		ldd r24,Z+24
 3198 00ec 918D      		ldd r25,Z+25
 3199 00ee A28D      		ldd r26,Z+26
 3200 00f0 B38D      		ldd r27,Z+27
 3201 00f2 C816      		cp r12,r24
 3202 00f4 D906      		cpc r13,r25
 3203 00f6 EA06      		cpc r14,r26
 3204 00f8 FB06      		cpc r15,r27
 3205 00fa 00F4      		brsh .+2
 3206 00fc 00C0      		rjmp .L149
 3207               	.LBB4:
 3208               	.LSM232:
 3209 00fe 8928      		or r8,r9
 3210 0100 01F4      		brne .+2
 3211 0102 00C0      		rjmp .L144
 3212               	.LSM233:
 3213 0104 4A85      		ldd r20,Y+10
 3214 0106 5B85      		ldd r21,Y+11
 3215 0108 6C85      		ldd r22,Y+12
 3216 010a 7D85      		ldd r23,Y+13
 3217 010c CF01      		movw r24,r30
 3218 010e 0E94 0000 		call create_chain
 3219 0112 6B01      		movw r12,r22
 3220 0114 7C01      		movw r14,r24
 3221               	.LSM234:
 3222 0116 6115      		cp r22,__zero_reg__
 3223 0118 7105      		cpc r23,__zero_reg__
 3224 011a 8105      		cpc r24,__zero_reg__
 3225 011c 9105      		cpc r25,__zero_reg__
 3226 011e 01F4      		brne .L150
 3227               	.LVL276:
 3228 0120 87E0      		ldi r24,lo8(7)
 3229 0122 00C0      		rjmp .L151
 3230               	.L150:
 3231               	.LSM235:
 3232 0124 6130      		cpi r22,lo8(1)
 3233 0126 7105      		cpc r23,__zero_reg__
 3234 0128 8105      		cpc r24,__zero_reg__
 3235 012a 9105      		cpc r25,__zero_reg__
 3236 012c 01F4      		brne .+2
 3237 012e 00C0      		rjmp .L147
 3238               	.LSM236:
 3239 0130 8FEF      		ldi r24,lo8(-1)
 3240 0132 C816      		cp r12,r24
 3241 0134 8FEF      		ldi r24,hi8(-1)
 3242 0136 D806      		cpc r13,r24
 3243 0138 8FEF      		ldi r24,hlo8(-1)
 3244 013a E806      		cpc r14,r24
 3245 013c 8FEF      		ldi r24,hhi8(-1)
 3246 013e F806      		cpc r15,r24
 3247 0140 01F4      		brne .+2
 3248 0142 00C0      		rjmp .L148
 3249               	.LVL277:
 3250               	.LSM237:
 3251 0144 8881      		ld r24,Y
 3252 0146 9981      		ldd r25,Y+1
 3253 0148 40E0      		ldi r20,lo8(0)
 3254 014a 50E0      		ldi r21,hi8(0)
 3255 014c 60E0      		ldi r22,hlo8(0)
 3256 014e 70E0      		ldi r23,hhi8(0)
 3257 0150 0E94 0000 		call move_window
 3258 0154 8823      		tst r24
 3259 0156 01F0      		breq .+2
 3260 0158 00C0      		rjmp .L148
 3261               	.LSM238:
 3262 015a E881      		ld r30,Y
 3263 015c F981      		ldd r31,Y+1
 3264 015e 4285      		ldd r20,Z+10
 3265 0160 5385      		ldd r21,Z+11
 3266 0162 CF01      		movw r24,r30
 3267 0164 C096      		adiw r24,48
 3268 0166 60E0      		ldi r22,lo8(0)
 3269 0168 70E0      		ldi r23,hi8(0)
 3270 016a 0E94 0000 		call mem_set
 3271               	.LSM239:
 3272 016e 0881      		ld r16,Y
 3273 0170 1981      		ldd r17,Y+1
 3274 0172 C801      		movw r24,r16
 3275 0174 B701      		movw r22,r14
 3276 0176 A601      		movw r20,r12
 3277 0178 0E94 0000 		call clust2sect
 3278 017c F801      		movw r30,r16
 3279 017e 64A7      		std Z+44,r22
 3280 0180 75A7      		std Z+45,r23
 3281 0182 86A7      		std Z+46,r24
 3282 0184 97A7      		std Z+47,r25
 3283 0186 10E0      		ldi r17,lo8(0)
 3284               	.LVL278:
 3285               	.LSM240:
 3286 0188 01E0      		ldi r16,lo8(1)
 3287 018a 00C0      		rjmp .L152
 3288               	.L153:
 3289 018c 0483      		std Z+4,r16
 3290               	.LSM241:
 3291 018e 8881      		ld r24,Y
 3292 0190 9981      		ldd r25,Y+1
 3293 0192 40E0      		ldi r20,lo8(0)
 3294 0194 50E0      		ldi r21,hi8(0)
 3295 0196 60E0      		ldi r22,hlo8(0)
 3296 0198 70E0      		ldi r23,hhi8(0)
 3297 019a 0E94 0000 		call move_window
 3298 019e 8823      		tst r24
 3299 01a0 01F0      		breq .+2
 3300 01a2 00C0      		rjmp .L148
 3301               	.LSM242:
 3302 01a4 E881      		ld r30,Y
 3303 01a6 F981      		ldd r31,Y+1
 3304 01a8 84A5      		ldd r24,Z+44
 3305 01aa 95A5      		ldd r25,Z+45
 3306 01ac A6A5      		ldd r26,Z+46
 3307 01ae B7A5      		ldd r27,Z+47
 3308 01b0 0196      		adiw r24,1
 3309 01b2 A11D      		adc r26,__zero_reg__
 3310 01b4 B11D      		adc r27,__zero_reg__
 3311 01b6 84A7      		std Z+44,r24
 3312 01b8 95A7      		std Z+45,r25
 3313 01ba A6A7      		std Z+46,r26
 3314 01bc B7A7      		std Z+47,r27
 3315               	.LSM243:
 3316 01be 1F5F      		subi r17,lo8(-(1))
 3317               	.L152:
 3318 01c0 E881      		ld r30,Y
 3319 01c2 F981      		ldd r31,Y+1
 3320 01c4 8281      		ldd r24,Z+2
 3321 01c6 1817      		cp r17,r24
 3322 01c8 00F0      		brlo .L153
 3323               	.LSM244:
 3324 01ca 84A5      		ldd r24,Z+44
 3325 01cc 95A5      		ldd r25,Z+45
 3326 01ce A6A5      		ldd r26,Z+46
 3327 01d0 B7A5      		ldd r27,Z+47
 3328 01d2 811B      		sub r24,r17
 3329 01d4 9109      		sbc r25,__zero_reg__
 3330 01d6 A109      		sbc r26,__zero_reg__
 3331 01d8 B109      		sbc r27,__zero_reg__
 3332 01da 84A7      		std Z+44,r24
 3333 01dc 95A7      		std Z+45,r25
 3334 01de A6A7      		std Z+46,r26
 3335 01e0 B7A7      		std Z+47,r27
 3336               	.L149:
 3337               	.LBE4:
 3338               	.LSM245:
 3339 01e2 CA86      		std Y+10,r12
 3340 01e4 DB86      		std Y+11,r13
 3341 01e6 EC86      		std Y+12,r14
 3342 01e8 FD86      		std Y+13,r15
 3343               	.LSM246:
 3344 01ea 8881      		ld r24,Y
 3345 01ec 9981      		ldd r25,Y+1
 3346 01ee B701      		movw r22,r14
 3347 01f0 A601      		movw r20,r12
 3348 01f2 0E94 0000 		call clust2sect
 3349 01f6 6E87      		std Y+14,r22
 3350 01f8 7F87      		std Y+15,r23
 3351 01fa 888B      		std Y+16,r24
 3352 01fc 998B      		std Y+17,r25
 3353               	.L145:
 3354               	.LSM247:
 3355 01fe BD82      		std Y+5,r11
 3356 0200 AC82      		std Y+4,r10
 3357               	.LSM248:
 3358 0202 E881      		ld r30,Y
 3359 0204 F981      		ldd r31,Y+1
 3360 0206 6285      		ldd r22,Z+10
 3361 0208 7385      		ldd r23,Z+11
 3362 020a 15E0      		ldi r17,5
 3363 020c 7695      	1:	lsr r23
 3364 020e 6795      		ror r22
 3365 0210 1A95      		dec r17
 3366 0212 01F4      		brne 1b
 3367               	.LVL279:
 3368 0214 C501      		movw r24,r10
 3369 0216 0E94 0000 		call __udivmodhi4
 3370 021a B5E0      		ldi r27,5
 3371 021c 880F      	1:	lsl r24
 3372 021e 991F      		rol r25
 3373 0220 BA95      		dec r27
 3374 0222 01F4      		brne 1b
 3375 0224 C096      		adiw r24,48
 3376 0226 E80F      		add r30,r24
 3377 0228 F91F      		adc r31,r25
 3378 022a FB8B      		std Y+19,r31
 3379 022c EA8B      		std Y+18,r30
 3380 022e 80E0      		ldi r24,lo8(0)
 3381 0230 00C0      		rjmp .L151
 3382               	.LVL280:
 3383               	.L144:
 3384               	.LSM249:
 3385 0232 84E0      		ldi r24,lo8(4)
 3386 0234 00C0      		rjmp .L151
 3387               	.LVL281:
 3388               	.L147:
 3389 0236 82E0      		ldi r24,lo8(2)
 3390 0238 00C0      		rjmp .L151
 3391               	.LVL282:
 3392               	.L148:
 3393 023a 81E0      		ldi r24,lo8(1)
 3394               	.LVL283:
 3395               	.L151:
 3396               	/* epilogue start */
 3397               	.LSM250:
 3398 023c DF91      		pop r29
 3399 023e CF91      		pop r28
 3400               	.LVL284:
 3401 0240 1F91      		pop r17
 3402               	.LVL285:
 3403 0242 0F91      		pop r16
 3404 0244 FF90      		pop r15
 3405 0246 EF90      		pop r14
 3406 0248 DF90      		pop r13
 3407 024a CF90      		pop r12
 3408               	.LVL286:
 3409 024c BF90      		pop r11
 3410 024e AF90      		pop r10
 3411               	.LVL287:
 3412 0250 9F90      		pop r9
 3413 0252 8F90      		pop r8
 3414               	.LVL288:
 3415 0254 0895      		ret
 3416               	.LFE145:
 3418               		.section	.text.f_read,"ax",@progbits
 3419               	.global	f_read
 3421               	f_read:
 3422               	.LFB155:
 3423               	.LSM251:
 3424               	.LVL289:
 3425 0000 2F92      		push r2
 3426 0002 3F92      		push r3
 3427 0004 4F92      		push r4
 3428 0006 5F92      		push r5
 3429 0008 6F92      		push r6
 3430 000a 7F92      		push r7
 3431 000c 8F92      		push r8
 3432 000e 9F92      		push r9
 3433 0010 AF92      		push r10
 3434 0012 BF92      		push r11
 3435 0014 CF92      		push r12
 3436 0016 DF92      		push r13
 3437 0018 EF92      		push r14
 3438 001a FF92      		push r15
 3439 001c 0F93      		push r16
 3440 001e 1F93      		push r17
 3441 0020 DF93      		push r29
 3442 0022 CF93      		push r28
 3443 0024 CDB7      		in r28,__SP_L__
 3444 0026 DEB7      		in r29,__SP_H__
 3445 0028 2797      		sbiw r28,7
 3446 002a 0FB6      		in __tmp_reg__,__SREG__
 3447 002c F894      		cli
 3448 002e DEBF      		out __SP_H__,r29
 3449 0030 0FBE      		out __SREG__,__tmp_reg__
 3450 0032 CDBF      		out __SP_L__,r28
 3451               	/* prologue: function */
 3452               	/* frame size = 7 */
 3453 0034 9F83      		std Y+7,r25
 3454 0036 8E83      		std Y+6,r24
 3455 0038 062F      		mov r16,r22
 3456 003a F72E      		mov r15,r23
 3457               	.LVL290:
 3458 003c 1A01      		movw r2,r20
 3459 003e 3D83      		std Y+5,r19
 3460 0040 2C83      		std Y+4,r18
 3461               	.LSM252:
 3462 0042 D901      		movw r26,r18
 3463 0044 1D92      		st X+,__zero_reg__
 3464 0046 1C92      		st X,__zero_reg__
 3465               	.LSM253:
 3466 0048 FC01      		movw r30,r24
 3467 004a 6281      		ldd r22,Z+2
 3468 004c 7381      		ldd r23,Z+3
 3469               	.LVL291:
 3470 004e 8081      		ld r24,Z
 3471 0050 9181      		ldd r25,Z+1
 3472               	.LVL292:
 3473 0052 0E94 0000 		call validate
 3474               	.LVL293:
 3475 0056 8B83      		std Y+3,r24
 3476               	.LVL294:
 3477               	.LSM254:
 3478 0058 8823      		tst r24
 3479 005a 01F0      		breq .+2
 3480 005c 00C0      		rjmp .L156
 3481               	.LSM255:
 3482 005e AE81      		ldd r26,Y+6
 3483 0060 BF81      		ldd r27,Y+7
 3484 0062 1496      		adiw r26,4
 3485 0064 8C91      		ld r24,X
 3486 0066 87FD      		sbrc r24,7
 3487 0068 00C0      		rjmp .L177
 3488               	.L157:
 3489               	.LSM256:
 3490 006a 80FD      		sbrc r24,0
 3491 006c 00C0      		rjmp .L158
 3492 006e E7E0      		ldi r30,lo8(7)
 3493 0070 EB83      		std Y+3,r30
 3494               	.LVL295:
 3495 0072 00C0      		rjmp .L156
 3496               	.L158:
 3497               	.LSM257:
 3498 0074 AE81      		ldd r26,Y+6
 3499 0076 BF81      		ldd r27,Y+7
 3500 0078 1A96      		adiw r26,10
 3501 007a 2D91      		ld r18,X+
 3502 007c 3D91      		ld r19,X+
 3503 007e 4D91      		ld r20,X+
 3504 0080 5C91      		ld r21,X
 3505 0082 1D97      		sbiw r26,10+3
 3506               	.LVL296:
 3507 0084 1696      		adiw r26,6
 3508 0086 8D91      		ld r24,X+
 3509 0088 9D91      		ld r25,X+
 3510 008a 0D90      		ld __tmp_reg__,X+
 3511 008c BC91      		ld r27,X
 3512 008e A02D      		mov r26,__tmp_reg__
 3513 0090 281B      		sub r18,r24
 3514 0092 390B      		sbc r19,r25
 3515 0094 4A0B      		sbc r20,r26
 3516 0096 5B0B      		sbc r21,r27
 3517               	.LSM258:
 3518 0098 C101      		movw r24,r2
 3519 009a A0E0      		ldi r26,lo8(0)
 3520 009c B0E0      		ldi r27,hi8(0)
 3521               	.LVL297:
 3522 009e 2817      		cp r18,r24
 3523 00a0 3907      		cpc r19,r25
 3524 00a2 4A07      		cpc r20,r26
 3525 00a4 5B07      		cpc r21,r27
 3526 00a6 00F4      		brsh .L159
 3527               	.LVL298:
 3528 00a8 1901      		movw r2,r18
 3529               	.LVL299:
 3530               	.L159:
 3531               	.LSM259:
 3532 00aa 802F      		mov r24,r16
 3533               	.LVL300:
 3534 00ac 9F2D      		mov r25,r15
 3535               	.LVL301:
 3536 00ae 9C01      		movw r18,r24
 3537               	.LVL302:
 3538 00b0 3A83      		std Y+2,r19
 3539 00b2 2983      		std Y+1,r18
 3540               	.LVL303:
 3541 00b4 00C0      		rjmp .L160
 3542               	.LVL304:
 3543               	.L175:
 3544               	.LSM260:
 3545 00b6 EE81      		ldd r30,Y+6
 3546 00b8 FF81      		ldd r31,Y+7
 3547 00ba C680      		ldd r12,Z+6
 3548 00bc D780      		ldd r13,Z+7
 3549 00be E084      		ldd r14,Z+8
 3550 00c0 F184      		ldd r15,Z+9
 3551 00c2 6080      		ld r6,Z
 3552 00c4 7180      		ldd r7,Z+1
 3553               	.LVL305:
 3554 00c6 D301      		movw r26,r6
 3555               	.LVL306:
 3556 00c8 1A96      		adiw r26,10
 3557 00ca 8D91      		ld r24,X+
 3558 00cc 9C91      		ld r25,X
 3559 00ce 1B97      		sbiw r26,10+1
 3560 00d0 4C01      		movw r8,r24
 3561 00d2 AA24      		clr r10
 3562 00d4 BB24      		clr r11
 3563 00d6 C701      		movw r24,r14
 3564 00d8 B601      		movw r22,r12
 3565 00da A501      		movw r20,r10
 3566 00dc 9401      		movw r18,r8
 3567 00de 0E94 0000 		call __udivmodsi4
 3568 00e2 6115      		cp r22,__zero_reg__
 3569 00e4 7105      		cpc r23,__zero_reg__
 3570 00e6 8105      		cpc r24,__zero_reg__
 3571 00e8 9105      		cpc r25,__zero_reg__
 3572 00ea 01F0      		breq .+2
 3573 00ec 00C0      		rjmp .L161
 3574               	.LSM261:
 3575 00ee C701      		movw r24,r14
 3576 00f0 B601      		movw r22,r12
 3577 00f2 A501      		movw r20,r10
 3578 00f4 9401      		movw r18,r8
 3579 00f6 0E94 0000 		call __udivmodsi4
 3580 00fa F301      		movw r30,r6
 3581 00fc 0281      		ldd r16,Z+2
 3582               	.LVL307:
 3583 00fe 0150      		subi r16,lo8(-(-1))
 3584 0100 0223      		and r16,r18
 3585               	.LSM262:
 3586 0102 01F0      		breq .+2
 3587 0104 00C0      		rjmp .L162
 3588               	.LSM263:
 3589 0106 C114      		cp r12,__zero_reg__
 3590 0108 D104      		cpc r13,__zero_reg__
 3591 010a E104      		cpc r14,__zero_reg__
 3592 010c F104      		cpc r15,__zero_reg__
 3593 010e 01F4      		brne .L163
 3594               	.LSM264:
 3595 0110 AE81      		ldd r26,Y+6
 3596 0112 BF81      		ldd r27,Y+7
 3597 0114 1E96      		adiw r26,14
 3598 0116 6D91      		ld r22,X+
 3599 0118 7D91      		ld r23,X+
 3600 011a 8D91      		ld r24,X+
 3601 011c 9C91      		ld r25,X
 3602 011e 5197      		sbiw r26,14+3
 3603               	.LVL308:
 3604 0120 00C0      		rjmp .L164
 3605               	.LVL309:
 3606               	.L163:
 3607               	.LSM265:
 3608 0122 EE81      		ldd r30,Y+6
 3609 0124 FF81      		ldd r31,Y+7
 3610 0126 4289      		ldd r20,Z+18
 3611 0128 5389      		ldd r21,Z+19
 3612 012a 6489      		ldd r22,Z+20
 3613 012c 7589      		ldd r23,Z+21
 3614 012e C301      		movw r24,r6
 3615 0130 0E94 0000 		call get_fat
 3616               	.LVL310:
 3617               	.L164:
 3618               	.LSM266:
 3619 0134 6230      		cpi r22,lo8(2)
 3620 0136 7105      		cpc r23,__zero_reg__
 3621 0138 8105      		cpc r24,__zero_reg__
 3622 013a 9105      		cpc r25,__zero_reg__
 3623 013c 00F4      		brsh .L165
 3624 013e AE81      		ldd r26,Y+6
 3625 0140 BF81      		ldd r27,Y+7
 3626 0142 1496      		adiw r26,4
 3627 0144 8C91      		ld r24,X
 3628 0146 1497      		sbiw r26,4
 3629 0148 8068      		ori r24,lo8(-128)
 3630 014a 1496      		adiw r26,4
 3631 014c 8C93      		st X,r24
 3632               	.LVL311:
 3633               	.L177:
 3634 014e B2E0      		ldi r27,lo8(2)
 3635               	.L178:
 3636 0150 BB83      		std Y+3,r27
 3637               	.LVL312:
 3638 0152 00C0      		rjmp .L156
 3639               	.LVL313:
 3640               	.L165:
 3641               	.LSM267:
 3642 0154 6F3F      		cpi r22,lo8(-1)
 3643 0156 EFEF      		ldi r30,hi8(-1)
 3644 0158 7E07      		cpc r23,r30
 3645 015a EFEF      		ldi r30,hlo8(-1)
 3646 015c 8E07      		cpc r24,r30
 3647 015e EFEF      		ldi r30,hhi8(-1)
 3648 0160 9E07      		cpc r25,r30
 3649 0162 01F4      		brne .L166
 3650 0164 AE81      		ldd r26,Y+6
 3651 0166 BF81      		ldd r27,Y+7
 3652 0168 1496      		adiw r26,4
 3653 016a 8C91      		ld r24,X
 3654 016c 1497      		sbiw r26,4
 3655 016e 8068      		ori r24,lo8(-128)
 3656 0170 1496      		adiw r26,4
 3657 0172 8C93      		st X,r24
 3658 0174 B1E0      		ldi r27,lo8(1)
 3659 0176 00C0      		rjmp .L178
 3660               	.L166:
 3661               	.LSM268:
 3662 0178 EE81      		ldd r30,Y+6
 3663 017a FF81      		ldd r31,Y+7
 3664 017c 628B      		std Z+18,r22
 3665 017e 738B      		std Z+19,r23
 3666 0180 848B      		std Z+20,r24
 3667 0182 958B      		std Z+21,r25
 3668               	.L162:
 3669               	.LSM269:
 3670 0184 AE81      		ldd r26,Y+6
 3671 0186 BF81      		ldd r27,Y+7
 3672 0188 ED90      		ld r14,X+
 3673 018a FC90      		ld r15,X
 3674 018c 1197      		sbiw r26,1
 3675               	.LVL314:
 3676 018e 5296      		adiw r26,18
 3677 0190 4D91      		ld r20,X+
 3678 0192 5D91      		ld r21,X+
 3679 0194 6D91      		ld r22,X+
 3680 0196 7C91      		ld r23,X
 3681 0198 5597      		sbiw r26,18+3
 3682 019a C701      		movw r24,r14
 3683 019c 0E94 0000 		call clust2sect
 3684               	.LVL315:
 3685               	.LSM270:
 3686 01a0 6115      		cp r22,__zero_reg__
 3687 01a2 7105      		cpc r23,__zero_reg__
 3688 01a4 8105      		cpc r24,__zero_reg__
 3689 01a6 9105      		cpc r25,__zero_reg__
 3690               	.LVL316:
 3691 01a8 01F4      		brne .L167
 3692 01aa EE81      		ldd r30,Y+6
 3693 01ac FF81      		ldd r31,Y+7
 3694 01ae 8481      		ldd r24,Z+4
 3695 01b0 8068      		ori r24,lo8(-128)
 3696 01b2 8483      		std Z+4,r24
 3697 01b4 F2E0      		ldi r31,lo8(2)
 3698 01b6 00C0      		rjmp .L180
 3699               	.L167:
 3700               	.LSM271:
 3701 01b8 3B01      		movw r6,r22
 3702 01ba 4C01      		movw r8,r24
 3703 01bc 600E      		add r6,r16
 3704 01be 711C      		adc r7,__zero_reg__
 3705 01c0 811C      		adc r8,__zero_reg__
 3706 01c2 911C      		adc r9,__zero_reg__
 3707               	.LVL317:
 3708               	.LSM272:
 3709 01c4 D701      		movw r26,r14
 3710 01c6 1A96      		adiw r26,10
 3711 01c8 6D91      		ld r22,X+
 3712 01ca 7C91      		ld r23,X
 3713 01cc 1B97      		sbiw r26,10+1
 3714 01ce C101      		movw r24,r2
 3715 01d0 0E94 0000 		call __udivmodhi4
 3716 01d4 2B01      		movw r4,r22
 3717               	.LSM273:
 3718 01d6 6115      		cp r22,__zero_reg__
 3719 01d8 7105      		cpc r23,__zero_reg__
 3720 01da 01F4      		brne .+2
 3721 01dc 00C0      		rjmp .L168
 3722               	.LVL318:
 3723               	.LSM274:
 3724 01de F701      		movw r30,r14
 3725 01e0 2281      		ldd r18,Z+2
 3726 01e2 402F      		mov r20,r16
 3727 01e4 50E0      		ldi r21,lo8(0)
 3728               	.LVL319:
 3729 01e6 CB01      		movw r24,r22
 3730 01e8 840F      		add r24,r20
 3731 01ea 951F      		adc r25,r21
 3732 01ec 30E0      		ldi r19,lo8(0)
 3733 01ee 2817      		cp r18,r24
 3734 01f0 3907      		cpc r19,r25
 3735 01f2 00F4      		brsh .L169
 3736               	.LVL320:
 3737               	.LSM275:
 3738 01f4 2901      		movw r4,r18
 3739               	.LVL321:
 3740 01f6 441A      		sub r4,r20
 3741 01f8 550A      		sbc r5,r21
 3742               	.LVL322:
 3743               	.L169:
 3744               	.LSM276:
 3745 01fa D701      		movw r26,r14
 3746 01fc 1196      		adiw r26,1
 3747 01fe 8C91      		ld r24,X
 3748 0200 6981      		ldd r22,Y+1
 3749 0202 7A81      		ldd r23,Y+2
 3750 0204 A401      		movw r20,r8
 3751 0206 9301      		movw r18,r6
 3752 0208 042D      		mov r16,r4
 3753 020a 0E94 0000 		call disk_read
 3754               	.LVL323:
 3755 020e 8823      		tst r24
 3756 0210 01F0      		breq .+2
 3757 0212 00C0      		rjmp .L179
 3758               	.L170:
 3759               	.LSM277:
 3760 0214 AE81      		ldd r26,Y+6
 3761 0216 BF81      		ldd r27,Y+7
 3762 0218 AD90      		ld r10,X+
 3763 021a BC90      		ld r11,X
 3764 021c F501      		movw r30,r10
 3765 021e 8481      		ldd r24,Z+4
 3766 0220 8823      		tst r24
 3767 0222 01F0      		breq .L171
 3768 0224 C4A4      		ldd r12,Z+44
 3769 0226 D5A4      		ldd r13,Z+45
 3770 0228 E6A4      		ldd r14,Z+46
 3771 022a F7A4      		ldd r15,Z+47
 3772 022c C618      		sub r12,r6
 3773 022e D708      		sbc r13,r7
 3774 0230 E808      		sbc r14,r8
 3775 0232 F908      		sbc r15,r9
 3776 0234 C201      		movw r24,r4
 3777 0236 A0E0      		ldi r26,lo8(0)
 3778 0238 B0E0      		ldi r27,hi8(0)
 3779               	.LVL324:
 3780 023a C816      		cp r12,r24
 3781 023c D906      		cpc r13,r25
 3782 023e EA06      		cpc r14,r26
 3783 0240 FB06      		cpc r15,r27
 3784 0242 00F4      		brsh .L171
 3785               	.LVL325:
 3786               	.LSM278:
 3787 0244 0285      		ldd r16,Z+10
 3788 0246 1385      		ldd r17,Z+11
 3789 0248 9801      		movw r18,r16
 3790 024a 40E0      		ldi r20,lo8(0)
 3791 024c 50E0      		ldi r21,hi8(0)
 3792 024e C701      		movw r24,r14
 3793 0250 B601      		movw r22,r12
 3794 0252 0E94 0000 		call __mulsi3
 3795               	.LVL326:
 3796 0256 8981      		ldd r24,Y+1
 3797 0258 9A81      		ldd r25,Y+2
 3798               	.LVL327:
 3799 025a 860F      		add r24,r22
 3800 025c 971F      		adc r25,r23
 3801 025e 20E3      		ldi r18,lo8(48)
 3802 0260 30E0      		ldi r19,hi8(48)
 3803 0262 A20E      		add r10,r18
 3804 0264 B31E      		adc r11,r19
 3805 0266 B501      		movw r22,r10
 3806 0268 A801      		movw r20,r16
 3807 026a 0E94 0000 		call mem_cpy
 3808               	.LVL328:
 3809               	.L171:
 3810               	.LSM279:
 3811 026e AE81      		ldd r26,Y+6
 3812 0270 BF81      		ldd r27,Y+7
 3813               	.LVL329:
 3814 0272 ED91      		ld r30,X+
 3815 0274 FC91      		ld r31,X
 3816 0276 8285      		ldd r24,Z+10
 3817 0278 9385      		ldd r25,Z+11
 3818 027a 489E      		mul r4,r24
 3819 027c 7001      		movw r14,r0
 3820 027e 499E      		mul r4,r25
 3821 0280 F00C      		add r15,r0
 3822 0282 589E      		mul r5,r24
 3823 0284 F00C      		add r15,r0
 3824 0286 1124      		clr r1
 3825               	.LVL330:
 3826 0288 00C0      		rjmp .L172
 3827               	.LVL331:
 3828               	.L168:
 3829               	.LSM280:
 3830 028a EE81      		ldd r30,Y+6
 3831 028c FF81      		ldd r31,Y+7
 3832 028e 668A      		std Z+22,r6
 3833 0290 778A      		std Z+23,r7
 3834 0292 808E      		std Z+24,r8
 3835 0294 918E      		std Z+25,r9
 3836               	.LVL332:
 3837               	.L161:
 3838               	.LSM281:
 3839 0296 AE81      		ldd r26,Y+6
 3840 0298 BF81      		ldd r27,Y+7
 3841 029a 1696      		adiw r26,6
 3842 029c CD90      		ld r12,X+
 3843 029e DD90      		ld r13,X+
 3844 02a0 ED90      		ld r14,X+
 3845 02a2 FC90      		ld r15,X
 3846 02a4 1997      		sbiw r26,6+3
 3847 02a6 ED91      		ld r30,X+
 3848 02a8 FC91      		ld r31,X
 3849 02aa 1197      		sbiw r26,1
 3850 02ac A284      		ldd r10,Z+10
 3851 02ae B384      		ldd r11,Z+11
 3852               	.LSM282:
 3853 02b0 5696      		adiw r26,22
 3854 02b2 4D91      		ld r20,X+
 3855 02b4 5D91      		ld r21,X+
 3856 02b6 6D91      		ld r22,X+
 3857 02b8 7C91      		ld r23,X
 3858 02ba 5997      		sbiw r26,22+3
 3859 02bc CF01      		movw r24,r30
 3860 02be 0E94 0000 		call move_window
 3861               	.LVL333:
 3862 02c2 8823      		tst r24
 3863 02c4 01F0      		breq .L173
 3864               	.L179:
 3865               	.LSM283:
 3866 02c6 EE81      		ldd r30,Y+6
 3867 02c8 FF81      		ldd r31,Y+7
 3868 02ca 8481      		ldd r24,Z+4
 3869 02cc 8068      		ori r24,lo8(-128)
 3870 02ce 8483      		std Z+4,r24
 3871 02d0 F1E0      		ldi r31,lo8(1)
 3872               	.LVL334:
 3873               	.L180:
 3874 02d2 FB83      		std Y+3,r31
 3875               	.LVL335:
 3876 02d4 00C0      		rjmp .L156
 3877               	.LVL336:
 3878               	.L173:
 3879               	.LSM284:
 3880 02d6 9501      		movw r18,r10
 3881 02d8 40E0      		ldi r20,lo8(0)
 3882 02da 50E0      		ldi r21,hi8(0)
 3883 02dc C701      		movw r24,r14
 3884 02de B601      		movw r22,r12
 3885 02e0 0E94 0000 		call __udivmodsi4
 3886 02e4 9501      		movw r18,r10
 3887               	.LVL337:
 3888 02e6 261B      		sub r18,r22
 3889 02e8 370B      		sbc r19,r23
 3890 02ea 7101      		movw r14,r2
 3891               	.LVL338:
 3892 02ec 2215      		cp r18,r2
 3893 02ee 3305      		cpc r19,r3
 3894 02f0 00F4      		brsh .L174
 3895               	.LVL339:
 3896 02f2 7901      		movw r14,r18
 3897               	.L174:
 3898               	.LSM285:
 3899 02f4 AE81      		ldd r26,Y+6
 3900 02f6 BF81      		ldd r27,Y+7
 3901 02f8 0D91      		ld r16,X+
 3902 02fa 1C91      		ld r17,X
 3903 02fc 1197      		sbiw r26,1
 3904               	.LVL340:
 3905 02fe F801      		movw r30,r16
 3906 0300 2285      		ldd r18,Z+10
 3907 0302 3385      		ldd r19,Z+11
 3908               	.LVL341:
 3909 0304 40E0      		ldi r20,lo8(0)
 3910 0306 50E0      		ldi r21,hi8(0)
 3911 0308 1696      		adiw r26,6
 3912 030a 6D91      		ld r22,X+
 3913 030c 7D91      		ld r23,X+
 3914 030e 8D91      		ld r24,X+
 3915 0310 9C91      		ld r25,X
 3916 0312 1997      		sbiw r26,6+3
 3917 0314 0E94 0000 		call __udivmodsi4
 3918 0318 605D      		subi r22,lo8(-(48))
 3919 031a 7F4F      		sbci r23,hi8(-(48))
 3920 031c 060F      		add r16,r22
 3921 031e 171F      		adc r17,r23
 3922 0320 8981      		ldd r24,Y+1
 3923 0322 9A81      		ldd r25,Y+2
 3924 0324 B801      		movw r22,r16
 3925 0326 A701      		movw r20,r14
 3926 0328 0E94 0000 		call mem_cpy
 3927               	.L172:
 3928               	.LSM286:
 3929 032c 2981      		ldd r18,Y+1
 3930 032e 3A81      		ldd r19,Y+2
 3931 0330 2E0D      		add r18,r14
 3932 0332 3F1D      		adc r19,r15
 3933 0334 3A83      		std Y+2,r19
 3934 0336 2983      		std Y+1,r18
 3935               	.LVL342:
 3936 0338 C701      		movw r24,r14
 3937 033a A0E0      		ldi r26,lo8(0)
 3938 033c B0E0      		ldi r27,hi8(0)
 3939               	.LVL343:
 3940 033e EE81      		ldd r30,Y+6
 3941 0340 FF81      		ldd r31,Y+7
 3942 0342 2681      		ldd r18,Z+6
 3943 0344 3781      		ldd r19,Z+7
 3944 0346 4085      		ldd r20,Z+8
 3945 0348 5185      		ldd r21,Z+9
 3946 034a 280F      		add r18,r24
 3947 034c 391F      		adc r19,r25
 3948 034e 4A1F      		adc r20,r26
 3949 0350 5B1F      		adc r21,r27
 3950 0352 2683      		std Z+6,r18
 3951 0354 3783      		std Z+7,r19
 3952 0356 4087      		std Z+8,r20
 3953 0358 5187      		std Z+9,r21
 3954 035a EC81      		ldd r30,Y+4
 3955 035c FD81      		ldd r31,Y+5
 3956 035e 8081      		ld r24,Z
 3957 0360 9181      		ldd r25,Z+1
 3958 0362 8E0D      		add r24,r14
 3959 0364 9F1D      		adc r25,r15
 3960 0366 9183      		std Z+1,r25
 3961 0368 8083      		st Z,r24
 3962 036a 2E18      		sub r2,r14
 3963 036c 3F08      		sbc r3,r15
 3964               	.LVL344:
 3965               	.L160:
 3966               	.LSM287:
 3967 036e 2114      		cp r2,__zero_reg__
 3968 0370 3104      		cpc r3,__zero_reg__
 3969 0372 01F0      		breq .+2
 3970 0374 00C0      		rjmp .L175
 3971               	.LVL345:
 3972               	.L156:
 3973               	.LSM288:
 3974 0376 8B81      		ldd r24,Y+3
 3975               	/* epilogue start */
 3976 0378 2796      		adiw r28,7
 3977 037a 0FB6      		in __tmp_reg__,__SREG__
 3978 037c F894      		cli
 3979 037e DEBF      		out __SP_H__,r29
 3980 0380 0FBE      		out __SREG__,__tmp_reg__
 3981 0382 CDBF      		out __SP_L__,r28
 3982 0384 CF91      		pop r28
 3983 0386 DF91      		pop r29
 3984 0388 1F91      		pop r17
 3985 038a 0F91      		pop r16
 3986               	.LVL346:
 3987 038c FF90      		pop r15
 3988               	.LVL347:
 3989 038e EF90      		pop r14
 3990               	.LVL348:
 3991 0390 DF90      		pop r13
 3992 0392 CF90      		pop r12
 3993 0394 BF90      		pop r11
 3994 0396 AF90      		pop r10
 3995 0398 9F90      		pop r9
 3996 039a 8F90      		pop r8
 3997 039c 7F90      		pop r7
 3998 039e 6F90      		pop r6
 3999               	.LVL349:
 4000 03a0 5F90      		pop r5
 4001 03a2 4F90      		pop r4
 4002               	.LVL350:
 4003 03a4 3F90      		pop r3
 4004 03a6 2F90      		pop r2
 4005               	.LVL351:
 4006 03a8 0895      		ret
 4007               	.LFE155:
 4009               		.section	.text.check_fs,"ax",@progbits
 4011               	check_fs:
 4012               	.LFB150:
 4013               	.LSM289:
 4014               	.LVL352:
 4015 0000 0F93      		push r16
 4016 0002 CF93      		push r28
 4017 0004 DF93      		push r29
 4018               	/* prologue: function */
 4019               	/* frame size = 0 */
 4020 0006 EC01      		movw r28,r24
 4021 0008 9A01      		movw r18,r20
 4022 000a AB01      		movw r20,r22
 4023               	.LSM290:
 4024 000c BC01      		movw r22,r24
 4025 000e 605D      		subi r22,lo8(-(48))
 4026 0010 7F4F      		sbci r23,hi8(-(48))
 4027 0012 8981      		ldd r24,Y+1
 4028               	.LVL353:
 4029 0014 01E0      		ldi r16,lo8(1)
 4030 0016 0E94 0000 		call disk_read
 4031               	.LVL354:
 4032 001a 8823      		tst r24
 4033 001c 01F0      		breq .L182
 4034 001e 63E0      		ldi r22,lo8(3)
 4035 0020 00C0      		rjmp .L183
 4036               	.L182:
 4037               	.LSM291:
 4038 0022 C15D      		subi r28,lo8(-(559))
 4039 0024 DD4F      		sbci r29,hi8(-(559))
 4040 0026 9881      		ld r25,Y
 4041 0028 80E0      		ldi r24,lo8(0)
 4042 002a 2A91      		ld r18,-Y
 4043 002c CE52      		subi r28,lo8(-(-558))
 4044 002e D240      		sbci r29,hi8(-(-558))
 4045 0030 30E0      		ldi r19,lo8(0)
 4046 0032 822B      		or r24,r18
 4047 0034 932B      		or r25,r19
 4048 0036 8555      		subi r24,lo8(-21931)
 4049 0038 9A4A      		sbci r25,hi8(-21931)
 4050 003a 01F0      		breq .L184
 4051 003c 62E0      		ldi r22,lo8(2)
 4052 003e 00C0      		rjmp .L183
 4053               	.L184:
 4054               	.LSM292:
 4055 0040 C759      		subi r28,lo8(-(105))
 4056 0042 DF4F      		sbci r29,hi8(-(105))
 4057 0044 2881      		ld r18,Y
 4058 0046 30E0      		ldi r19,lo8(0)
 4059 0048 40E0      		ldi r20,lo8(0)
 4060 004a 50E0      		ldi r21,hi8(0)
 4061 004c 522F      		mov r21,r18
 4062 004e 4427      		clr r20
 4063 0050 3327      		clr r19
 4064 0052 2227      		clr r18
 4065 0054 8A91      		ld r24,-Y
 4066 0056 90E0      		ldi r25,lo8(0)
 4067 0058 A0E0      		ldi r26,lo8(0)
 4068 005a B0E0      		ldi r27,hi8(0)
 4069 005c DC01      		movw r26,r24
 4070 005e 9927      		clr r25
 4071 0060 8827      		clr r24
 4072 0062 282B      		or r18,r24
 4073 0064 392B      		or r19,r25
 4074 0066 4A2B      		or r20,r26
 4075 0068 5B2B      		or r21,r27
 4076 006a 2297      		sbiw r28,2
 4077 006c 8991      		ld r24,Y+
 4078 006e 90E0      		ldi r25,lo8(0)
 4079 0070 A0E0      		ldi r26,lo8(0)
 4080 0072 B0E0      		ldi r27,hi8(0)
 4081 0074 282B      		or r18,r24
 4082 0076 392B      		or r19,r25
 4083 0078 4A2B      		or r20,r26
 4084 007a 5B2B      		or r21,r27
 4085 007c 9881      		ld r25,Y
 4086 007e C756      		subi r28,lo8(-(-103))
 4087 0080 D040      		sbci r29,hi8(-(-103))
 4088 0082 80E0      		ldi r24,lo8(0)
 4089 0084 A0E0      		ldi r26,lo8(0)
 4090 0086 B0E0      		ldi r27,hi8(0)
 4091 0088 282B      		or r18,r24
 4092 008a 392B      		or r19,r25
 4093 008c 4A2B      		or r20,r26
 4094 008e 5B2B      		or r21,r27
 4095 0090 5070      		andi r21,hhi8(16777215)
 4096 0092 2654      		subi r18,lo8(5521734)
 4097 0094 3144      		sbci r19,hi8(5521734)
 4098 0096 4445      		sbci r20,hlo8(5521734)
 4099 0098 5040      		sbci r21,hhi8(5521734)
 4100 009a 01F4      		brne .L185
 4101 009c 60E0      		ldi r22,lo8(0)
 4102 009e 00C0      		rjmp .L183
 4103               	.L185:
 4104 00a0 60E0      		ldi r22,lo8(0)
 4105 00a2 CB57      		subi r28,lo8(-(133))
 4106 00a4 DF4F      		sbci r29,hi8(-(133))
 4107 00a6 2881      		ld r18,Y
 4108 00a8 30E0      		ldi r19,lo8(0)
 4109 00aa 40E0      		ldi r20,lo8(0)
 4110 00ac 50E0      		ldi r21,hi8(0)
 4111 00ae 522F      		mov r21,r18
 4112 00b0 4427      		clr r20
 4113 00b2 3327      		clr r19
 4114 00b4 2227      		clr r18
 4115 00b6 8A91      		ld r24,-Y
 4116 00b8 90E0      		ldi r25,lo8(0)
 4117 00ba A0E0      		ldi r26,lo8(0)
 4118 00bc B0E0      		ldi r27,hi8(0)
 4119 00be DC01      		movw r26,r24
 4120 00c0 9927      		clr r25
 4121 00c2 8827      		clr r24
 4122 00c4 282B      		or r18,r24
 4123 00c6 392B      		or r19,r25
 4124 00c8 4A2B      		or r20,r26
 4125 00ca 5B2B      		or r21,r27
 4126 00cc 2297      		sbiw r28,2
 4127 00ce 8991      		ld r24,Y+
 4128 00d0 90E0      		ldi r25,lo8(0)
 4129 00d2 A0E0      		ldi r26,lo8(0)
 4130 00d4 B0E0      		ldi r27,hi8(0)
 4131 00d6 282B      		or r18,r24
 4132 00d8 392B      		or r19,r25
 4133 00da 4A2B      		or r20,r26
 4134 00dc 5B2B      		or r21,r27
 4135 00de 9881      		ld r25,Y
 4136               	.LVL355:
 4137 00e0 80E0      		ldi r24,lo8(0)
 4138 00e2 A0E0      		ldi r26,lo8(0)
 4139 00e4 B0E0      		ldi r27,hi8(0)
 4140 00e6 282B      		or r18,r24
 4141 00e8 392B      		or r19,r25
 4142 00ea 4A2B      		or r20,r26
 4143 00ec 5B2B      		or r21,r27
 4144 00ee 5070      		andi r21,hhi8(16777215)
 4145 00f0 2654      		subi r18,lo8(5521734)
 4146 00f2 3144      		sbci r19,hi8(5521734)
 4147 00f4 4445      		sbci r20,hlo8(5521734)
 4148 00f6 5040      		sbci r21,hhi8(5521734)
 4149 00f8 01F0      		breq .L183
 4150 00fa 61E0      		ldi r22,lo8(1)
 4151               	.LVL356:
 4152               	.L183:
 4153               	.LSM293:
 4154 00fc 862F      		mov r24,r22
 4155               	/* epilogue start */
 4156 00fe DF91      		pop r29
 4157 0100 CF91      		pop r28
 4158               	.LVL357:
 4159 0102 0F91      		pop r16
 4160 0104 0895      		ret
 4161               	.LFE150:
 4163               		.section	.text.f_sync,"ax",@progbits
 4164               	.global	f_sync
 4166               	f_sync:
 4167               	.LFB157:
 4168               	.LSM294:
 4169               	.LVL358:
 4170 0000 0F93      		push r16
 4171 0002 1F93      		push r17
 4172 0004 CF93      		push r28
 4173 0006 DF93      		push r29
 4174               	/* prologue: function */
 4175               	/* frame size = 0 */
 4176 0008 EC01      		movw r28,r24
 4177               	.LSM295:
 4178 000a 6A81      		ldd r22,Y+2
 4179 000c 7B81      		ldd r23,Y+3
 4180 000e 8881      		ld r24,Y
 4181 0010 9981      		ldd r25,Y+1
 4182               	.LVL359:
 4183 0012 0E94 0000 		call validate
 4184 0016 982F      		mov r25,r24
 4185               	.LVL360:
 4186               	.LSM296:
 4187 0018 8823      		tst r24
 4188 001a 01F0      		breq .+2
 4189 001c 00C0      		rjmp .L189
 4190               	.LVL361:
 4191               	.LSM297:
 4192 001e 8C81      		ldd r24,Y+4
 4193               	.LVL362:
 4194 0020 85FF      		sbrs r24,5
 4195 0022 00C0      		rjmp .L189
 4196               	.LSM298:
 4197 0024 4A8D      		ldd r20,Y+26
 4198 0026 5B8D      		ldd r21,Y+27
 4199 0028 6C8D      		ldd r22,Y+28
 4200 002a 7D8D      		ldd r23,Y+29
 4201 002c 8881      		ld r24,Y
 4202 002e 9981      		ldd r25,Y+1
 4203 0030 0E94 0000 		call move_window
 4204               	.LVL363:
 4205 0034 982F      		mov r25,r24
 4206               	.LVL364:
 4207               	.LSM299:
 4208 0036 8823      		tst r24
 4209 0038 01F0      		breq .+2
 4210 003a 00C0      		rjmp .L189
 4211               	.LVL365:
 4212               	.LSM300:
 4213 003c 0E8D      		ldd r16,Y+30
 4214 003e 1F8D      		ldd r17,Y+31
 4215               	.LVL366:
 4216               	.LSM301:
 4217 0040 F801      		movw r30,r16
 4218 0042 8385      		ldd r24,Z+11
 4219               	.LVL367:
 4220 0044 8062      		ori r24,lo8(32)
 4221 0046 8387      		std Z+11,r24
 4222               	.LSM302:
 4223 0048 8A85      		ldd r24,Y+10
 4224 004a 848F      		std Z+28,r24
 4225 004c 8B85      		ldd r24,Y+11
 4226 004e 858F      		std Z+29,r24
 4227 0050 8A85      		ldd r24,Y+10
 4228 0052 9B85      		ldd r25,Y+11
 4229 0054 AC85      		ldd r26,Y+12
 4230 0056 BD85      		ldd r27,Y+13
 4231 0058 CD01      		movw r24,r26
 4232 005a AA27      		clr r26
 4233 005c BB27      		clr r27
 4234 005e 868F      		std Z+30,r24
 4235 0060 8A85      		ldd r24,Y+10
 4236 0062 9B85      		ldd r25,Y+11
 4237 0064 AC85      		ldd r26,Y+12
 4238 0066 BD85      		ldd r27,Y+13
 4239 0068 8B2F      		mov r24,r27
 4240 006a 9927      		clr r25
 4241 006c AA27      		clr r26
 4242 006e BB27      		clr r27
 4243 0070 878F      		std Z+31,r24
 4244               	.LSM303:
 4245 0072 8E85      		ldd r24,Y+14
 4246 0074 828F      		std Z+26,r24
 4247 0076 8F85      		ldd r24,Y+15
 4248 0078 838F      		std Z+27,r24
 4249 007a 8E85      		ldd r24,Y+14
 4250 007c 9F85      		ldd r25,Y+15
 4251 007e A889      		ldd r26,Y+16
 4252 0080 B989      		ldd r27,Y+17
 4253 0082 CD01      		movw r24,r26
 4254 0084 AA27      		clr r26
 4255 0086 BB27      		clr r27
 4256 0088 848B      		std Z+20,r24
 4257 008a 8E85      		ldd r24,Y+14
 4258 008c 9F85      		ldd r25,Y+15
 4259 008e A889      		ldd r26,Y+16
 4260 0090 B989      		ldd r27,Y+17
 4261 0092 CD01      		movw r24,r26
 4262 0094 AA27      		clr r26
 4263 0096 BB27      		clr r27
 4264 0098 892F      		mov r24,r25
 4265 009a 9927      		clr r25
 4266 009c 858B      		std Z+21,r24
 4267               	.LSM304:
 4268 009e 0E94 0000 		call get_fattime
 4269               	.LVL368:
 4270               	.LSM305:
 4271 00a2 F801      		movw r30,r16
 4272 00a4 668B      		std Z+22,r22
 4273               	.LVL369:
 4274 00a6 272F      		mov r18,r23
 4275 00a8 3327      		clr r19
 4276 00aa 278B      		std Z+23,r18
 4277 00ac 9C01      		movw r18,r24
 4278 00ae 4427      		clr r20
 4279 00b0 5527      		clr r21
 4280 00b2 208F      		std Z+24,r18
 4281 00b4 692F      		mov r22,r25
 4282 00b6 7727      		clr r23
 4283 00b8 8827      		clr r24
 4284 00ba 9927      		clr r25
 4285               	.LVL370:
 4286 00bc 618F      		std Z+25,r22
 4287               	.LSM306:
 4288 00be 8C81      		ldd r24,Y+4
 4289 00c0 8F7D      		andi r24,lo8(-33)
 4290 00c2 8C83      		std Y+4,r24
 4291               	.LSM307:
 4292 00c4 E881      		ld r30,Y
 4293 00c6 F981      		ldd r31,Y+1
 4294 00c8 81E0      		ldi r24,lo8(1)
 4295 00ca 8483      		std Z+4,r24
 4296               	.LSM308:
 4297 00cc 0990      		ld __tmp_reg__,Y+
 4298 00ce D881      		ld r29,Y
 4299 00d0 C02D      		mov r28,__tmp_reg__
 4300               	.LVL371:
 4301               	.LBB7:
 4302               	.LSM309:
 4303 00d2 CE01      		movw r24,r28
 4304 00d4 40E0      		ldi r20,lo8(0)
 4305 00d6 50E0      		ldi r21,hi8(0)
 4306 00d8 60E0      		ldi r22,hlo8(0)
 4307 00da 70E0      		ldi r23,hhi8(0)
 4308 00dc 0E94 0000 		call move_window
 4309 00e0 982F      		mov r25,r24
 4310               	.LVL372:
 4311               	.LBB8:
 4312               	.LSM310:
 4313 00e2 8823      		tst r24
 4314 00e4 01F0      		breq .+2
 4315 00e6 00C0      		rjmp .L189
 4316               	.LVL373:
 4317               	.LSM311:
 4318 00e8 8881      		ld r24,Y
 4319               	.LVL374:
 4320 00ea 8330      		cpi r24,lo8(3)
 4321 00ec 01F0      		breq .+2
 4322 00ee 00C0      		rjmp .L190
 4323 00f0 8D81      		ldd r24,Y+5
 4324 00f2 8823      		tst r24
 4325 00f4 01F4      		brne .+2
 4326 00f6 00C0      		rjmp .L190
 4327               	.LSM312:
 4328 00f8 1CA6      		std Y+44,__zero_reg__
 4329 00fa 1DA6      		std Y+45,__zero_reg__
 4330 00fc 1EA6      		std Y+46,__zero_reg__
 4331 00fe 1FA6      		std Y+47,__zero_reg__
 4332               	.LSM313:
 4333 0100 8E01      		movw r16,r28
 4334               	.LVL375:
 4335 0102 005D      		subi r16,lo8(-(48))
 4336 0104 1F4F      		sbci r17,hi8(-(48))
 4337 0106 C801      		movw r24,r16
 4338 0108 60E0      		ldi r22,lo8(0)
 4339 010a 70E0      		ldi r23,hi8(0)
 4340 010c 40E0      		ldi r20,lo8(512)
 4341 010e 52E0      		ldi r21,hi8(512)
 4342 0110 0E94 0000 		call mem_set
 4343               	.LVL376:
 4344               	.LSM314:
 4345 0114 C25D      		subi r28,lo8(-(558))
 4346 0116 DD4F      		sbci r29,hi8(-(558))
 4347 0118 85E5      		ldi r24,lo8(85)
 4348 011a 8993      		st Y+,r24
 4349 011c 8AEA      		ldi r24,lo8(-86)
 4350 011e 8883      		st Y,r24
 4351 0120 CF52      		subi r28,lo8(-(-559))
 4352 0122 D240      		sbci r29,hi8(-(-559))
 4353               	.LSM315:
 4354 0124 82E5      		ldi r24,lo8(82)
 4355 0126 88AB      		std Y+48,r24
 4356 0128 89AB      		std Y+49,r24
 4357 012a 21E6      		ldi r18,lo8(97)
 4358 012c 2AAB      		std Y+50,r18
 4359 012e 91E4      		ldi r25,lo8(65)
 4360 0130 9BAB      		std Y+51,r25
 4361               	.LSM316:
 4362 0132 CC5E      		subi r28,lo8(-(532))
 4363 0134 DD4F      		sbci r29,hi8(-(532))
 4364 0136 82E7      		ldi r24,lo8(114)
 4365 0138 8993      		st Y+,r24
 4366 013a 8993      		st Y+,r24
 4367 013c 9993      		st Y+,r25
 4368 013e 2883      		st Y,r18
 4369 0140 C751      		subi r28,lo8(-(-535))
 4370 0142 D240      		sbci r29,hi8(-(-535))
 4371               	.LSM317:
 4372 0144 8889      		ldd r24,Y+16
 4373 0146 C85E      		subi r28,lo8(-(536))
 4374 0148 DD4F      		sbci r29,hi8(-(536))
 4375 014a 8883      		st Y,r24
 4376 014c C851      		subi r28,lo8(-(-536))
 4377 014e D240      		sbci r29,hi8(-(-536))
 4378 0150 8989      		ldd r24,Y+17
 4379 0152 C75E      		subi r28,lo8(-(537))
 4380 0154 DD4F      		sbci r29,hi8(-(537))
 4381 0156 8883      		st Y,r24
 4382 0158 C951      		subi r28,lo8(-(-537))
 4383 015a D240      		sbci r29,hi8(-(-537))
 4384 015c 8889      		ldd r24,Y+16
 4385 015e 9989      		ldd r25,Y+17
 4386 0160 AA89      		ldd r26,Y+18
 4387 0162 BB89      		ldd r27,Y+19
 4388 0164 9D01      		movw r18,r26
 4389 0166 4427      		clr r20
 4390 0168 5527      		clr r21
 4391 016a C65E      		subi r28,lo8(-(538))
 4392 016c DD4F      		sbci r29,hi8(-(538))
 4393 016e 2883      		st Y,r18
 4394 0170 2196      		adiw r28,1
 4395 0172 8B2F      		mov r24,r27
 4396 0174 9927      		clr r25
 4397 0176 AA27      		clr r26
 4398 0178 BB27      		clr r27
 4399 017a 8883      		st Y,r24
 4400 017c CB51      		subi r28,lo8(-(-539))
 4401 017e D240      		sbci r29,hi8(-(-539))
 4402               	.LSM318:
 4403 0180 8C85      		ldd r24,Y+12
 4404 0182 C45E      		subi r28,lo8(-(540))
 4405 0184 DD4F      		sbci r29,hi8(-(540))
 4406 0186 8883      		st Y,r24
 4407 0188 CC51      		subi r28,lo8(-(-540))
 4408 018a D240      		sbci r29,hi8(-(-540))
 4409 018c 8D85      		ldd r24,Y+13
 4410 018e C35E      		subi r28,lo8(-(541))
 4411 0190 DD4F      		sbci r29,hi8(-(541))
 4412 0192 8883      		st Y,r24
 4413 0194 CD51      		subi r28,lo8(-(-541))
 4414 0196 D240      		sbci r29,hi8(-(-541))
 4415 0198 8C85      		ldd r24,Y+12
 4416 019a 9D85      		ldd r25,Y+13
 4417 019c AE85      		ldd r26,Y+14
 4418 019e BF85      		ldd r27,Y+15
 4419 01a0 9D01      		movw r18,r26
 4420 01a2 4427      		clr r20
 4421 01a4 5527      		clr r21
 4422 01a6 C25E      		subi r28,lo8(-(542))
 4423 01a8 DD4F      		sbci r29,hi8(-(542))
 4424 01aa 2883      		st Y,r18
 4425 01ac 2196      		adiw r28,1
 4426 01ae 8B2F      		mov r24,r27
 4427 01b0 9927      		clr r25
 4428 01b2 AA27      		clr r26
 4429 01b4 BB27      		clr r27
 4430 01b6 8883      		st Y,r24
 4431 01b8 CF51      		subi r28,lo8(-(-543))
 4432 01ba D240      		sbci r29,hi8(-(-543))
 4433               	.LSM319:
 4434 01bc 2C89      		ldd r18,Y+20
 4435 01be 3D89      		ldd r19,Y+21
 4436 01c0 4E89      		ldd r20,Y+22
 4437 01c2 5F89      		ldd r21,Y+23
 4438 01c4 8981      		ldd r24,Y+1
 4439 01c6 B801      		movw r22,r16
 4440 01c8 01E0      		ldi r16,lo8(1)
 4441 01ca 0E94 0000 		call disk_write
 4442               	.LSM320:
 4443 01ce 1D82      		std Y+5,__zero_reg__
 4444               	.LVL377:
 4445               	.L190:
 4446               	.LBE8:
 4447               	.LSM321:
 4448 01d0 8981      		ldd r24,Y+1
 4449 01d2 60E0      		ldi r22,lo8(0)
 4450 01d4 40E0      		ldi r20,lo8(0)
 4451 01d6 50E0      		ldi r21,hi8(0)
 4452 01d8 0E94 0000 		call disk_ioctl
 4453               	.LVL378:
 4454 01dc 8111      		cpse r24,__zero_reg__
 4455 01de 81E0      		ldi r24,lo8(1)
 4456               	.L191:
 4457 01e0 982F      		mov r25,r24
 4458               	.LVL379:
 4459               	.L189:
 4460               	.LBE7:
 4461               	.LSM322:
 4462 01e2 892F      		mov r24,r25
 4463               	/* epilogue start */
 4464 01e4 DF91      		pop r29
 4465 01e6 CF91      		pop r28
 4466               	.LVL380:
 4467 01e8 1F91      		pop r17
 4468 01ea 0F91      		pop r16
 4469               	.LVL381:
 4470 01ec 0895      		ret
 4471               	.LFE157:
 4473               		.section	.text.f_close,"ax",@progbits
 4474               	.global	f_close
 4476               	f_close:
 4477               	.LFB158:
 4478               	.LSM323:
 4479               	.LVL382:
 4480 0000 CF93      		push r28
 4481 0002 DF93      		push r29
 4482               	/* prologue: function */
 4483               	/* frame size = 0 */
 4484 0004 EC01      		movw r28,r24
 4485               	.LSM324:
 4486 0006 0E94 0000 		call f_sync
 4487               	.LVL383:
 4488               	.LSM325:
 4489 000a 8823      		tst r24
 4490               	.LVL384:
 4491 000c 01F4      		brne .L194
 4492 000e 1982      		std Y+1,__zero_reg__
 4493 0010 1882      		st Y,__zero_reg__
 4494               	.L194:
 4495               	.LVL385:
 4496               	/* epilogue start */
 4497               	.LSM326:
 4498 0012 DF91      		pop r29
 4499 0014 CF91      		pop r28
 4500               	.LVL386:
 4501 0016 0895      		ret
 4502               	.LFE158:
 4504               		.data
 4505               	.LC0:
 4506 0000 222A 2B2C 		.string	"\"*+,:;<=>?[]|\177"
 4506      3A3B 3C3D 
 4506      3E3F 5B5D 
 4506      7C7F 00
 4507               		.section	.text.f_open,"ax",@progbits
 4508               	.global	f_open
 4510               	f_open:
 4511               	.LFB154:
 4512               	.LSM327:
 4513               	.LVL387:
 4514 0000 2F92      		push r2
 4515 0002 3F92      		push r3
 4516 0004 4F92      		push r4
 4517 0006 5F92      		push r5
 4518 0008 6F92      		push r6
 4519 000a 7F92      		push r7
 4520 000c 8F92      		push r8
 4521 000e 9F92      		push r9
 4522 0010 AF92      		push r10
 4523 0012 BF92      		push r11
 4524 0014 CF92      		push r12
 4525 0016 DF92      		push r13
 4526 0018 EF92      		push r14
 4527 001a FF92      		push r15
 4528 001c 0F93      		push r16
 4529 001e 1F93      		push r17
 4530 0020 DF93      		push r29
 4531 0022 CF93      		push r28
 4532 0024 CDB7      		in r28,__SP_L__
 4533 0026 DEB7      		in r29,__SP_H__
 4534 0028 E797      		sbiw r28,55
 4535 002a 0FB6      		in __tmp_reg__,__SREG__
 4536 002c F894      		cli
 4537 002e DEBF      		out __SP_H__,r29
 4538 0030 0FBE      		out __SREG__,__tmp_reg__
 4539 0032 CDBF      		out __SP_L__,r28
 4540               	/* prologue: function */
 4541               	/* frame size = 55 */
 4542 0034 9DAB      		std Y+53,r25
 4543 0036 8CAB      		std Y+52,r24
 4544 0038 7FAB      		std Y+55,r23
 4545 003a 6EAB      		std Y+54,r22
 4546               	.LSM328:
 4547 003c DC01      		movw r26,r24
 4548 003e 1D92      		st X+,__zero_reg__
 4549 0040 1C92      		st X,__zero_reg__
 4550               	.LSM329:
 4551 0042 4F71      		andi r20,lo8(31)
 4552 0044 4BA7      		std Y+43,r20
 4553               	.LBB26:
 4554               	.LBB27:
 4555               	.LSM330:
 4556 0046 FB01      		movw r30,r22
 4557 0048 8081      		ld r24,Z
 4558               	.LVL388:
 4559 004a 282F      		mov r18,r24
 4560               	.LVL389:
 4561 004c 30E0      		ldi r19,lo8(0)
 4562               	.LVL390:
 4563 004e 2053      		subi r18,lo8(-(-48))
 4564 0050 3040      		sbci r19,hi8(-(-48))
 4565               	.LVL391:
 4566               	.LSM331:
 4567 0052 2A30      		cpi r18,10
 4568 0054 3105      		cpc r19,__zero_reg__
 4569 0056 00F4      		brsh .L197
 4570               	.LVL392:
 4571 0058 8181      		ldd r24,Z+1
 4572 005a 8A33      		cpi r24,lo8(58)
 4573 005c 01F4      		brne .L197
 4574               	.LSM332:
 4575 005e 3296      		adiw r30,2
 4576 0060 FFAB      		std Y+55,r31
 4577 0062 EEAB      		std Y+54,r30
 4578               	.LVL393:
 4579               	.LSM333:
 4580 0064 232B      		or r18,r19
 4581 0066 01F0      		breq .L197
 4582 0068 2BE0      		ldi r18,lo8(11)
 4583 006a F22E      		mov r15,r18
 4584               	.LVL394:
 4585 006c 00C0      		rjmp .L198
 4586               	.LVL395:
 4587               	.L197:
 4588               	.LSM334:
 4589 006e C090 0000 		lds r12,FatFs
 4590 0072 D090 0000 		lds r13,(FatFs)+1
 4591               	.LVL396:
 4592 0076 DE86      		std Y+14,r13
 4593 0078 CD86      		std Y+13,r12
 4594               	.LSM335:
 4595 007a C114      		cp r12,__zero_reg__
 4596 007c D104      		cpc r13,__zero_reg__
 4597 007e 01F4      		brne .L199
 4598 0080 9CE0      		ldi r25,lo8(12)
 4599 0082 F92E      		mov r15,r25
 4600               	.LVL397:
 4601 0084 00C0      		rjmp .L198
 4602               	.LVL398:
 4603               	.L199:
 4604               	.LBE27:
 4605               	.LBE26:
 4606               	.LSM336:
 4607 0086 FBA4      		ldd r15,Y+43
 4608 0088 FEEF      		ldi r31,lo8(-2)
 4609 008a FF22      		and r15,r31
 4610               	.LBB35:
 4611               	.LBB28:
 4612               	.LSM337:
 4613 008c D601      		movw r26,r12
 4614 008e 8C91      		ld r24,X
 4615 0090 8823      		tst r24
 4616 0092 01F0      		breq .L200
 4617               	.LBE28:
 4618               	.LSM338:
 4619 0094 1196      		adiw r26,1
 4620 0096 8C91      		ld r24,X
 4621 0098 0E94 0000 		call disk_status
 4622               	.LVL399:
 4623               	.LBB29:
 4624               	.LSM339:
 4625 009c 80FD      		sbrc r24,0
 4626 009e 00C0      		rjmp .L200
 4627               	.LSM340:
 4628 00a0 FF20      		tst r15
 4629 00a2 01F4      		brne .+2
 4630 00a4 00C0      		rjmp .L201
 4631 00a6 82FD      		sbrc r24,2
 4632 00a8 00C0      		rjmp .L202
 4633 00aa 00C0      		rjmp .L201
 4634               	.LVL400:
 4635               	.L200:
 4636               	.LSM341:
 4637 00ac F601      		movw r30,r12
 4638 00ae 1082      		st Z,__zero_reg__
 4639               	.LSM342:
 4640 00b0 1182      		std Z+1,__zero_reg__
 4641               	.LBE29:
 4642               	.LSM343:
 4643 00b2 80E0      		ldi r24,lo8(0)
 4644 00b4 0E94 0000 		call disk_initialize
 4645               	.LVL401:
 4646               	.LBB30:
 4647               	.LSM344:
 4648 00b8 082F      		mov r16,r24
 4649               	.LBE30:
 4650 00ba 80FF      		sbrs r24,0
 4651 00bc 00C0      		rjmp .L203
 4652 00be 83E0      		ldi r24,lo8(3)
 4653 00c0 F82E      		mov r15,r24
 4654               	.LVL402:
 4655 00c2 00C0      		rjmp .L198
 4656               	.LVL403:
 4657               	.L203:
 4658               	.LSM345:
 4659 00c4 A601      		movw r20,r12
 4660 00c6 465F      		subi r20,lo8(-(10))
 4661 00c8 5F4F      		sbci r21,hi8(-(10))
 4662 00ca D601      		movw r26,r12
 4663 00cc 1196      		adiw r26,1
 4664 00ce 8C91      		ld r24,X
 4665 00d0 62E0      		ldi r22,lo8(2)
 4666 00d2 0E94 0000 		call disk_ioctl
 4667               	.LBB31:
 4668 00d6 8823      		tst r24
 4669 00d8 01F0      		breq .+2
 4670 00da 00C0      		rjmp .L204
 4671               	.LSM346:
 4672 00dc FF20      		tst r15
 4673 00de 01F0      		breq .L205
 4674 00e0 02FD      		sbrc r16,2
 4675 00e2 00C0      		rjmp .L202
 4676               	.L205:
 4677               	.LBE31:
 4678               	.LSM347:
 4679 00e4 C601      		movw r24,r12
 4680 00e6 40E0      		ldi r20,lo8(0)
 4681 00e8 50E0      		ldi r21,hi8(0)
 4682 00ea 60E0      		ldi r22,hlo8(0)
 4683 00ec 70E0      		ldi r23,hhi8(0)
 4684 00ee 0E94 0000 		call check_fs
 4685               	.LBB32:
 4686               	.LSM348:
 4687 00f2 8130      		cpi r24,lo8(1)
 4688               	.LVL404:
 4689 00f4 01F0      		breq .L206
 4690 00f6 18AA      		std Y+48,__zero_reg__
 4691 00f8 19AA      		std Y+49,__zero_reg__
 4692 00fa 1AAA      		std Y+50,__zero_reg__
 4693 00fc 1BAA      		std Y+51,__zero_reg__
 4694               	.LVL405:
 4695 00fe 00C0      		rjmp .L207
 4696               	.LVL406:
 4697               	.L206:
 4698               	.LSM349:
 4699 0100 F601      		movw r30,r12
 4700               	.LVL407:
 4701 0102 E251      		subi r30,lo8(-(494))
 4702 0104 FE4F      		sbci r31,hi8(-(494))
 4703               	.LSM350:
 4704 0106 8481      		ldd r24,Z+4
 4705               	.LVL408:
 4706 0108 8823      		tst r24
 4707 010a 01F4      		brne .+2
 4708 010c 00C0      		rjmp .L208
 4709               	.LSM351:
 4710 010e 8385      		ldd r24,Z+11
 4711 0110 90E0      		ldi r25,lo8(0)
 4712 0112 A0E0      		ldi r26,lo8(0)
 4713 0114 B0E0      		ldi r27,hi8(0)
 4714 0116 582F      		mov r21,r24
 4715 0118 4427      		clr r20
 4716 011a 3327      		clr r19
 4717 011c 2227      		clr r18
 4718 011e 8285      		ldd r24,Z+10
 4719 0120 90E0      		ldi r25,lo8(0)
 4720 0122 A0E0      		ldi r26,lo8(0)
 4721 0124 B0E0      		ldi r27,hi8(0)
 4722 0126 DC01      		movw r26,r24
 4723 0128 9927      		clr r25
 4724 012a 8827      		clr r24
 4725 012c 282B      		or r18,r24
 4726 012e 392B      		or r19,r25
 4727 0130 4A2B      		or r20,r26
 4728 0132 5B2B      		or r21,r27
 4729 0134 8085      		ldd r24,Z+8
 4730 0136 90E0      		ldi r25,lo8(0)
 4731 0138 A0E0      		ldi r26,lo8(0)
 4732 013a B0E0      		ldi r27,hi8(0)
 4733 013c 282B      		or r18,r24
 4734 013e 392B      		or r19,r25
 4735 0140 4A2B      		or r20,r26
 4736 0142 5B2B      		or r21,r27
 4737 0144 9185      		ldd r25,Z+9
 4738 0146 80E0      		ldi r24,lo8(0)
 4739 0148 A0E0      		ldi r26,lo8(0)
 4740 014a B0E0      		ldi r27,hi8(0)
 4741 014c 282B      		or r18,r24
 4742 014e 392B      		or r19,r25
 4743 0150 4A2B      		or r20,r26
 4744 0152 5B2B      		or r21,r27
 4745 0154 28AB      		std Y+48,r18
 4746 0156 39AB      		std Y+49,r19
 4747 0158 4AAB      		std Y+50,r20
 4748 015a 5BAB      		std Y+51,r21
 4749               	.LVL409:
 4750               	.LBE32:
 4751               	.LSM352:
 4752 015c C601      		movw r24,r12
 4753 015e BA01      		movw r22,r20
 4754 0160 A901      		movw r20,r18
 4755 0162 0E94 0000 		call check_fs
 4756               	.LVL410:
 4757               	.L207:
 4758               	.LBB33:
 4759               	.LSM353:
 4760 0166 8330      		cpi r24,lo8(3)
 4761 0168 01F4      		brne .+2
 4762 016a 00C0      		rjmp .L204
 4763               	.LSM354:
 4764 016c 8823      		tst r24
 4765 016e 01F0      		breq .+2
 4766 0170 00C0      		rjmp .L208
 4767               	.LSM355:
 4768 0172 D601      		movw r26,r12
 4769 0174 DC96      		adiw r26,60
 4770 0176 9C91      		ld r25,X
 4771 0178 DC97      		sbiw r26,60
 4772 017a 80E0      		ldi r24,lo8(0)
 4773               	.LVL411:
 4774 017c DB96      		adiw r26,59
 4775 017e 2C91      		ld r18,X
 4776 0180 DB97      		sbiw r26,59
 4777 0182 30E0      		ldi r19,lo8(0)
 4778 0184 822B      		or r24,r18
 4779 0186 932B      		or r25,r19
 4780 0188 1A96      		adiw r26,10
 4781 018a 2D91      		ld r18,X+
 4782 018c 3C91      		ld r19,X
 4783 018e 1B97      		sbiw r26,10+1
 4784 0190 8217      		cp r24,r18
 4785 0192 9307      		cpc r25,r19
 4786 0194 01F0      		breq .+2
 4787 0196 00C0      		rjmp .L208
 4788               	.LSM356:
 4789 0198 E7E4      		ldi r30,lo8(71)
 4790 019a F0E0      		ldi r31,hi8(71)
 4791 019c CE0E      		add r12,r30
 4792 019e DF1E      		adc r13,r31
 4793 01a0 D601      		movw r26,r12
 4794 01a2 9C91      		ld r25,X
 4795 01a4 80E0      		ldi r24,lo8(0)
 4796 01a6 F601      		movw r30,r12
 4797 01a8 2291      		ld r18,-Z
 4798 01aa 6F01      		movw r12,r30
 4799 01ac 4AEB      		ldi r20,lo8(-70)
 4800 01ae 5FEF      		ldi r21,hi8(-70)
 4801 01b0 C40E      		add r12,r20
 4802 01b2 D51E      		adc r13,r21
 4803 01b4 30E0      		ldi r19,lo8(0)
 4804 01b6 822B      		or r24,r18
 4805 01b8 932B      		or r25,r19
 4806 01ba 3C01      		movw r6,r24
 4807               	.LVL412:
 4808 01bc 8824      		clr r8
 4809 01be 9924      		clr r9
 4810               	.LVL413:
 4811               	.LSM357:
 4812 01c0 6114      		cp r6,__zero_reg__
 4813 01c2 7104      		cpc r7,__zero_reg__
 4814 01c4 8104      		cpc r8,__zero_reg__
 4815 01c6 9104      		cpc r9,__zero_reg__
 4816 01c8 01F4      		brne .L209
 4817 01ca 67E5      		ldi r22,lo8(87)
 4818 01cc 70E0      		ldi r23,hi8(87)
 4819 01ce C60E      		add r12,r22
 4820 01d0 D71E      		adc r13,r23
 4821 01d2 D601      		movw r26,r12
 4822 01d4 8C91      		ld r24,X
 4823 01d6 90E0      		ldi r25,lo8(0)
 4824 01d8 A0E0      		ldi r26,lo8(0)
 4825 01da B0E0      		ldi r27,hi8(0)
 4826 01dc 982E      		mov r9,r24
 4827 01de 8824      		clr r8
 4828 01e0 7724      		clr r7
 4829 01e2 6624      		clr r6
 4830               	.LVL414:
 4831 01e4 F601      		movw r30,r12
 4832 01e6 8291      		ld r24,-Z
 4833 01e8 6F01      		movw r12,r30
 4834 01ea 90E0      		ldi r25,lo8(0)
 4835 01ec A0E0      		ldi r26,lo8(0)
 4836 01ee B0E0      		ldi r27,hi8(0)
 4837 01f0 DC01      		movw r26,r24
 4838 01f2 9927      		clr r25
 4839 01f4 8827      		clr r24
 4840 01f6 682A      		or r6,r24
 4841 01f8 792A      		or r7,r25
 4842 01fa 8A2A      		or r8,r26
 4843 01fc 9B2A      		or r9,r27
 4844 01fe 2EEF      		ldi r18,lo8(-2)
 4845 0200 3FEF      		ldi r19,hi8(-2)
 4846 0202 C20E      		add r12,r18
 4847 0204 D31E      		adc r13,r19
 4848 0206 D601      		movw r26,r12
 4849 0208 8D91      		ld r24,X+
 4850 020a 6D01      		movw r12,r26
 4851 020c 90E0      		ldi r25,lo8(0)
 4852 020e A0E0      		ldi r26,lo8(0)
 4853 0210 B0E0      		ldi r27,hi8(0)
 4854 0212 682A      		or r6,r24
 4855 0214 792A      		or r7,r25
 4856 0216 8A2A      		or r8,r26
 4857 0218 9B2A      		or r9,r27
 4858 021a F601      		movw r30,r12
 4859 021c 9081      		ld r25,Z
 4860 021e 2BEA      		ldi r18,lo8(-85)
 4861 0220 3FEF      		ldi r19,hi8(-85)
 4862 0222 C20E      		add r12,r18
 4863 0224 D31E      		adc r13,r19
 4864 0226 80E0      		ldi r24,lo8(0)
 4865 0228 A0E0      		ldi r26,lo8(0)
 4866 022a B0E0      		ldi r27,hi8(0)
 4867 022c 682A      		or r6,r24
 4868 022e 792A      		or r7,r25
 4869 0230 8A2A      		or r8,r26
 4870 0232 9B2A      		or r9,r27
 4871               	.L209:
 4872               	.LSM358:
 4873 0234 D601      		movw r26,r12
 4874 0236 5C96      		adiw r26,28
 4875 0238 6D92      		st X+,r6
 4876 023a 7D92      		st X+,r7
 4877 023c 8D92      		st X+,r8
 4878 023e 9C92      		st X,r9
 4879 0240 5F97      		sbiw r26,28+3
 4880               	.LSM359:
 4881 0242 E0E4      		ldi r30,lo8(64)
 4882 0244 F0E0      		ldi r31,hi8(64)
 4883 0246 CE0E      		add r12,r30
 4884 0248 DF1E      		adc r13,r31
 4885 024a D601      		movw r26,r12
 4886 024c 4C91      		ld r20,X
 4887               	.LVL415:
 4888 024e E0EC      		ldi r30,lo8(-64)
 4889 0250 FFEF      		ldi r31,hi8(-64)
 4890 0252 CE0E      		add r12,r30
 4891 0254 DF1E      		adc r13,r31
 4892 0256 D601      		movw r26,r12
 4893 0258 1396      		adiw r26,3
 4894 025a 4C93      		st X,r20
 4895 025c 1397      		sbiw r26,3
 4896               	.LSM360:
 4897 025e 842F      		mov r24,r20
 4898 0260 8150      		subi r24,lo8(-(-1))
 4899 0262 8230      		cpi r24,lo8(2)
 4900 0264 00F0      		brlo .+2
 4901 0266 00C0      		rjmp .L208
 4902               	.LSM361:
 4903 0268 DD96      		adiw r26,61
 4904 026a 2C91      		ld r18,X
 4905 026c DD97      		sbiw r26,61
 4906               	.LVL416:
 4907 026e 1296      		adiw r26,2
 4908 0270 2C93      		st X,r18
 4909               	.LSM362:
 4910 0272 2223      		tst r18
 4911 0274 01F4      		brne .+2
 4912 0276 00C0      		rjmp .L208
 4913 0278 30E0      		ldi r19,lo8(0)
 4914 027a C901      		movw r24,r18
 4915               	.LVL417:
 4916 027c 0197      		sbiw r24,1
 4917 027e 8223      		and r24,r18
 4918 0280 9323      		and r25,r19
 4919 0282 892B      		or r24,r25
 4920 0284 01F0      		breq .+2
 4921 0286 00C0      		rjmp .L208
 4922               	.LSM363:
 4923 0288 E2E4      		ldi r30,lo8(66)
 4924 028a F0E0      		ldi r31,hi8(66)
 4925 028c CE0E      		add r12,r30
 4926 028e DF1E      		adc r13,r31
 4927 0290 D601      		movw r26,r12
 4928 0292 9C91      		ld r25,X
 4929 0294 80E0      		ldi r24,lo8(0)
 4930 0296 F601      		movw r30,r12
 4931 0298 2291      		ld r18,-Z
 4932 029a 6F01      		movw r12,r30
 4933 029c 6FEB      		ldi r22,lo8(-65)
 4934 029e 7FEF      		ldi r23,hi8(-65)
 4935 02a0 C60E      		add r12,r22
 4936 02a2 D71E      		adc r13,r23
 4937 02a4 422E      		mov r4,r18
 4938 02a6 5524      		clr r5
 4939 02a8 482A      		or r4,r24
 4940 02aa 592A      		or r5,r25
 4941 02ac D601      		movw r26,r12
 4942 02ae 1996      		adiw r26,8+1
 4943 02b0 5C92      		st X,r5
 4944 02b2 4E92      		st -X,r4
 4945 02b4 1897      		sbiw r26,8
 4946               	.LSM364:
 4947 02b6 1A96      		adiw r26,10
 4948 02b8 2D90      		ld r2,X+
 4949 02ba 3C90      		ld r3,X
 4950 02bc 1B97      		sbiw r26,10+1
 4951 02be 75E0      		ldi r23,5
 4952 02c0 3694      	1:	lsr r3
 4953 02c2 2794      		ror r2
 4954 02c4 7A95      		dec r23
 4955 02c6 01F4      		brne 1b
 4956 02c8 C201      		movw r24,r4
 4957 02ca B101      		movw r22,r2
 4958 02cc 0E94 0000 		call __udivmodhi4
 4959 02d0 892B      		or r24,r25
 4960 02d2 01F0      		breq .+2
 4961 02d4 00C0      		rjmp .L208
 4962               	.LSM365:
 4963 02d6 E4E4      		ldi r30,lo8(68)
 4964 02d8 F0E0      		ldi r31,hi8(68)
 4965 02da CE0E      		add r12,r30
 4966 02dc DF1E      		adc r13,r31
 4967 02de D601      		movw r26,r12
 4968 02e0 9C91      		ld r25,X
 4969 02e2 80E0      		ldi r24,lo8(0)
 4970 02e4 F601      		movw r30,r12
 4971 02e6 2291      		ld r18,-Z
 4972 02e8 6F01      		movw r12,r30
 4973 02ea 6DEB      		ldi r22,lo8(-67)
 4974 02ec 7FEF      		ldi r23,hi8(-67)
 4975 02ee C60E      		add r12,r22
 4976 02f0 D71E      		adc r13,r23
 4977 02f2 30E0      		ldi r19,lo8(0)
 4978 02f4 822B      		or r24,r18
 4979 02f6 932B      		or r25,r19
 4980 02f8 7C01      		movw r14,r24
 4981               	.LVL418:
 4982 02fa 00E0      		ldi r16,lo8(0)
 4983 02fc 10E0      		ldi r17,hi8(0)
 4984               	.LVL419:
 4985               	.LSM366:
 4986 02fe E114      		cp r14,__zero_reg__
 4987 0300 F104      		cpc r15,__zero_reg__
 4988 0302 0105      		cpc r16,__zero_reg__
 4989 0304 1105      		cpc r17,__zero_reg__
 4990 0306 01F4      		brne .L210
 4991 0308 83E5      		ldi r24,lo8(83)
 4992 030a 90E0      		ldi r25,hi8(83)
 4993 030c C80E      		add r12,r24
 4994 030e D91E      		adc r13,r25
 4995 0310 D601      		movw r26,r12
 4996 0312 8C91      		ld r24,X
 4997 0314 90E0      		ldi r25,lo8(0)
 4998 0316 A0E0      		ldi r26,lo8(0)
 4999 0318 B0E0      		ldi r27,hi8(0)
 5000 031a 182F      		mov r17,r24
 5001 031c 0027      		clr r16
 5002 031e FF24      		clr r15
 5003 0320 EE24      		clr r14
 5004               	.LVL420:
 5005 0322 F601      		movw r30,r12
 5006 0324 8291      		ld r24,-Z
 5007 0326 6F01      		movw r12,r30
 5008 0328 90E0      		ldi r25,lo8(0)
 5009 032a A0E0      		ldi r26,lo8(0)
 5010 032c B0E0      		ldi r27,hi8(0)
 5011 032e DC01      		movw r26,r24
 5012 0330 9927      		clr r25
 5013 0332 8827      		clr r24
 5014 0334 E82A      		or r14,r24
 5015 0336 F92A      		or r15,r25
 5016 0338 0A2B      		or r16,r26
 5017 033a 1B2B      		or r17,r27
 5018 033c 2EEF      		ldi r18,lo8(-2)
 5019 033e 3FEF      		ldi r19,hi8(-2)
 5020 0340 C20E      		add r12,r18
 5021 0342 D31E      		adc r13,r19
 5022 0344 D601      		movw r26,r12
 5023 0346 8D91      		ld r24,X+
 5024 0348 6D01      		movw r12,r26
 5025 034a 90E0      		ldi r25,lo8(0)
 5026 034c A0E0      		ldi r26,lo8(0)
 5027 034e B0E0      		ldi r27,hi8(0)
 5028 0350 E82A      		or r14,r24
 5029 0352 F92A      		or r15,r25
 5030 0354 0A2B      		or r16,r26
 5031 0356 1B2B      		or r17,r27
 5032 0358 F601      		movw r30,r12
 5033 035a 9081      		ld r25,Z
 5034 035c 2FEA      		ldi r18,lo8(-81)
 5035 035e 3FEF      		ldi r19,hi8(-81)
 5036 0360 C20E      		add r12,r18
 5037 0362 D31E      		adc r13,r19
 5038 0364 80E0      		ldi r24,lo8(0)
 5039 0366 A0E0      		ldi r26,lo8(0)
 5040 0368 B0E0      		ldi r27,hi8(0)
 5041 036a E82A      		or r14,r24
 5042 036c F92A      		or r15,r25
 5043 036e 0A2B      		or r16,r26
 5044 0370 1B2B      		or r17,r27
 5045               	.L210:
 5046               	.LSM367:
 5047 0372 D601      		movw r26,r12
 5048 0374 DF96      		adiw r26,63
 5049 0376 9C91      		ld r25,X
 5050 0378 DF97      		sbiw r26,63
 5051 037a 80E0      		ldi r24,lo8(0)
 5052 037c DE96      		adiw r26,62
 5053 037e 2C91      		ld r18,X
 5054 0380 A22E      		mov r10,r18
 5055               	.LVL421:
 5056 0382 BB24      		clr r11
 5057               	.LVL422:
 5058 0384 A82A      		or r10,r24
 5059 0386 B92A      		or r11,r25
 5060               	.LVL423:
 5061               	.LSM368:
 5062 0388 A114      		cp r10,__zero_reg__
 5063 038a B104      		cpc r11,__zero_reg__
 5064 038c 01F4      		brne .+2
 5065 038e 00C0      		rjmp .L208
 5066               	.LSM369:
 5067 0390 242F      		mov r18,r20
 5068               	.LVL424:
 5069 0392 30E0      		ldi r19,lo8(0)
 5070               	.LVL425:
 5071 0394 40E0      		ldi r20,lo8(0)
 5072 0396 50E0      		ldi r21,hi8(0)
 5073               	.LVL426:
 5074 0398 C401      		movw r24,r8
 5075 039a B301      		movw r22,r6
 5076 039c 0E94 0000 		call __mulsi3
 5077               	.LVL427:
 5078 03a0 6BA3      		std Y+35,r22
 5079 03a2 7CA3      		std Y+36,r23
 5080 03a4 8DA3      		std Y+37,r24
 5081 03a6 9EA3      		std Y+38,r25
 5082               	.LVL428:
 5083               	.LSM370:
 5084 03a8 9501      		movw r18,r10
 5085 03aa 40E0      		ldi r20,lo8(0)
 5086 03ac 50E0      		ldi r21,hi8(0)
 5087               	.LVL429:
 5088 03ae 2CA7      		std Y+44,r18
 5089 03b0 3DA7      		std Y+45,r19
 5090 03b2 4EA7      		std Y+46,r20
 5091 03b4 5FA7      		std Y+47,r21
 5092 03b6 C201      		movw r24,r4
 5093 03b8 B101      		movw r22,r2
 5094 03ba 0E94 0000 		call __udivmodhi4
 5095 03be 4B01      		movw r8,r22
 5096               	.LVL430:
 5097 03c0 AA24      		clr r10
 5098 03c2 BB24      		clr r11
 5099               	.LVL431:
 5100 03c4 4CA5      		ldd r20,Y+44
 5101 03c6 5DA5      		ldd r21,Y+45
 5102 03c8 6EA5      		ldd r22,Y+46
 5103 03ca 7FA5      		ldd r23,Y+47
 5104 03cc 840E      		add r8,r20
 5105 03ce 951E      		adc r9,r21
 5106 03d0 A61E      		adc r10,r22
 5107 03d2 B71E      		adc r11,r23
 5108               	.LVL432:
 5109 03d4 6BA1      		ldd r22,Y+35
 5110 03d6 7CA1      		ldd r23,Y+36
 5111 03d8 8DA1      		ldd r24,Y+37
 5112 03da 9EA1      		ldd r25,Y+38
 5113 03dc 860E      		add r8,r22
 5114 03de 971E      		adc r9,r23
 5115 03e0 A81E      		adc r10,r24
 5116 03e2 B91E      		adc r11,r25
 5117               	.LSM371:
 5118 03e4 E814      		cp r14,r8
 5119 03e6 F904      		cpc r15,r9
 5120 03e8 0A05      		cpc r16,r10
 5121 03ea 1B05      		cpc r17,r11
 5122 03ec 00F4      		brsh .+2
 5123 03ee 00C0      		rjmp .L208
 5124               	.LSM372:
 5125 03f0 E818      		sub r14,r8
 5126 03f2 F908      		sbc r15,r9
 5127 03f4 0A09      		sbc r16,r10
 5128 03f6 1B09      		sbc r17,r11
 5129               	.LVL433:
 5130 03f8 D601      		movw r26,r12
 5131 03fa 1296      		adiw r26,2
 5132 03fc 2C91      		ld r18,X
 5133 03fe 30E0      		ldi r19,lo8(0)
 5134               	.LVL434:
 5135 0400 40E0      		ldi r20,lo8(0)
 5136 0402 50E0      		ldi r21,hi8(0)
 5137 0404 C801      		movw r24,r16
 5138 0406 B701      		movw r22,r14
 5139 0408 0E94 0000 		call __udivmodsi4
 5140 040c C901      		movw r24,r18
 5141 040e DA01      		movw r26,r20
 5142               	.LSM373:
 5143 0410 0097      		sbiw r24,0
 5144 0412 A105      		cpc r26,__zero_reg__
 5145 0414 B105      		cpc r27,__zero_reg__
 5146               	.LVL435:
 5147 0416 01F4      		brne .+2
 5148 0418 00C0      		rjmp .L208
 5149               	.LSM374:
 5150 041a 863F      		cpi r24,lo8(4086)
 5151 041c EFE0      		ldi r30,hi8(4086)
 5152 041e 9E07      		cpc r25,r30
 5153 0420 E0E0      		ldi r30,hlo8(4086)
 5154 0422 AE07      		cpc r26,r30
 5155 0424 E0E0      		ldi r30,hhi8(4086)
 5156 0426 BE07      		cpc r27,r30
 5157 0428 00F4      		brsh .L211
 5158 042a 3324      		clr r3
 5159 042c 3394      		inc r3
 5160               	.LVL436:
 5161 042e 00C0      		rjmp .L212
 5162               	.LVL437:
 5163               	.L211:
 5164               	.LSM375:
 5165 0430 863F      		cpi r24,lo8(65526)
 5166 0432 FFEF      		ldi r31,hi8(65526)
 5167 0434 9F07      		cpc r25,r31
 5168 0436 F0E0      		ldi r31,hlo8(65526)
 5169 0438 AF07      		cpc r26,r31
 5170 043a F0E0      		ldi r31,hhi8(65526)
 5171 043c BF07      		cpc r27,r31
 5172 043e 00F0      		brlo .L213
 5173 0440 43E0      		ldi r20,lo8(3)
 5174 0442 342E      		mov r3,r20
 5175               	.LVL438:
 5176 0444 00C0      		rjmp .L212
 5177               	.LVL439:
 5178               	.L213:
 5179 0446 32E0      		ldi r19,lo8(2)
 5180 0448 332E      		mov r3,r19
 5181               	.LVL440:
 5182               	.L212:
 5183               	.LSM376:
 5184 044a 22E0      		ldi r18,lo8(2)
 5185 044c 422E      		mov r4,r18
 5186 044e 512C      		mov r5,__zero_reg__
 5187 0450 612C      		mov r6,__zero_reg__
 5188 0452 712C      		mov r7,__zero_reg__
 5189 0454 480E      		add r4,r24
 5190 0456 591E      		adc r5,r25
 5191 0458 6A1E      		adc r6,r26
 5192 045a 7B1E      		adc r7,r27
 5193 045c D601      		movw r26,r12
 5194 045e 5896      		adiw r26,24
 5195 0460 4D92      		st X+,r4
 5196 0462 5D92      		st X+,r5
 5197 0464 6D92      		st X+,r6
 5198 0466 7C92      		st X,r7
 5199 0468 5B97      		sbiw r26,24+3
 5200               	.LSM377:
 5201 046a 28A9      		ldd r18,Y+48
 5202 046c 39A9      		ldd r19,Y+49
 5203 046e 4AA9      		ldd r20,Y+50
 5204 0470 5BA9      		ldd r21,Y+51
 5205 0472 820E      		add r8,r18
 5206 0474 931E      		adc r9,r19
 5207 0476 A41E      		adc r10,r20
 5208 0478 B51E      		adc r11,r21
 5209 047a 9896      		adiw r26,40
 5210 047c 8D92      		st X+,r8
 5211 047e 9D92      		st X+,r9
 5212 0480 AD92      		st X+,r10
 5213 0482 BC92      		st X,r11
 5214 0484 9B97      		sbiw r26,40+3
 5215               	.LSM378:
 5216 0486 28A9      		ldd r18,Y+48
 5217 0488 39A9      		ldd r19,Y+49
 5218 048a 4AA9      		ldd r20,Y+50
 5219 048c 5BA9      		ldd r21,Y+51
 5220 048e 6CA5      		ldd r22,Y+44
 5221 0490 7DA5      		ldd r23,Y+45
 5222 0492 8EA5      		ldd r24,Y+46
 5223 0494 9FA5      		ldd r25,Y+47
 5224 0496 260F      		add r18,r22
 5225 0498 371F      		adc r19,r23
 5226 049a 481F      		adc r20,r24
 5227 049c 591F      		adc r21,r25
 5228 049e 9096      		adiw r26,32
 5229 04a0 2D93      		st X+,r18
 5230 04a2 3D93      		st X+,r19
 5231 04a4 4D93      		st X+,r20
 5232 04a6 5C93      		st X,r21
 5233 04a8 9397      		sbiw r26,32+3
 5234 04aa 1896      		adiw r26,8
 5235 04ac 8D91      		ld r24,X+
 5236 04ae 9C91      		ld r25,X
 5237 04b0 1997      		sbiw r26,8+1
 5238               	.LVL441:
 5239               	.LSM379:
 5240 04b2 B3E0      		ldi r27,lo8(3)
 5241 04b4 3B16      		cp r3,r27
 5242 04b6 01F0      		breq .+2
 5243 04b8 00C0      		rjmp .L214
 5244               	.LSM380:
 5245 04ba 892B      		or r24,r25
 5246 04bc 01F0      		breq .+2
 5247 04be 00C0      		rjmp .L208
 5248               	.LSM381:
 5249 04c0 EFE5      		ldi r30,lo8(95)
 5250 04c2 F0E0      		ldi r31,hi8(95)
 5251 04c4 CE0E      		add r12,r30
 5252 04c6 DF1E      		adc r13,r31
 5253 04c8 D601      		movw r26,r12
 5254 04ca 2C91      		ld r18,X
 5255 04cc 30E0      		ldi r19,lo8(0)
 5256 04ce 40E0      		ldi r20,lo8(0)
 5257 04d0 50E0      		ldi r21,hi8(0)
 5258 04d2 522F      		mov r21,r18
 5259 04d4 4427      		clr r20
 5260 04d6 3327      		clr r19
 5261 04d8 2227      		clr r18
 5262               	.LVL442:
 5263 04da F601      		movw r30,r12
 5264 04dc 8291      		ld r24,-Z
 5265 04de 6F01      		movw r12,r30
 5266 04e0 90E0      		ldi r25,lo8(0)
 5267 04e2 A0E0      		ldi r26,lo8(0)
 5268 04e4 B0E0      		ldi r27,hi8(0)
 5269 04e6 DC01      		movw r26,r24
 5270 04e8 9927      		clr r25
 5271 04ea 8827      		clr r24
 5272 04ec 282B      		or r18,r24
 5273 04ee 392B      		or r19,r25
 5274 04f0 4A2B      		or r20,r26
 5275 04f2 5B2B      		or r21,r27
 5276 04f4 6EEF      		ldi r22,lo8(-2)
 5277 04f6 7FEF      		ldi r23,hi8(-2)
 5278 04f8 C60E      		add r12,r22
 5279 04fa D71E      		adc r13,r23
 5280 04fc D601      		movw r26,r12
 5281 04fe 8D91      		ld r24,X+
 5282 0500 6D01      		movw r12,r26
 5283 0502 90E0      		ldi r25,lo8(0)
 5284 0504 A0E0      		ldi r26,lo8(0)
 5285 0506 B0E0      		ldi r27,hi8(0)
 5286 0508 282B      		or r18,r24
 5287 050a 392B      		or r19,r25
 5288 050c 4A2B      		or r20,r26
 5289 050e 5B2B      		or r21,r27
 5290 0510 F601      		movw r30,r12
 5291 0512 9081      		ld r25,Z
 5292 0514 63EA      		ldi r22,lo8(-93)
 5293 0516 7FEF      		ldi r23,hi8(-93)
 5294 0518 C60E      		add r12,r22
 5295 051a D71E      		adc r13,r23
 5296 051c 80E0      		ldi r24,lo8(0)
 5297 051e A0E0      		ldi r26,lo8(0)
 5298 0520 B0E0      		ldi r27,hi8(0)
 5299 0522 282B      		or r18,r24
 5300 0524 392B      		or r19,r25
 5301 0526 4A2B      		or r20,r26
 5302 0528 5B2B      		or r21,r27
 5303 052a D601      		movw r26,r12
 5304 052c 9496      		adiw r26,36
 5305 052e 2D93      		st X+,r18
 5306 0530 3D93      		st X+,r19
 5307 0532 4D93      		st X+,r20
 5308 0534 5C93      		st X,r21
 5309 0536 9797      		sbiw r26,36+3
 5310               	.LSM382:
 5311 0538 8301      		movw r16,r6
 5312 053a 7201      		movw r14,r4
 5313               	.LVL443:
 5314 053c A2E0      		ldi r26,2
 5315 053e EE0C      	1:	lsl r14
 5316 0540 FF1C      		rol r15
 5317 0542 001F      		rol r16
 5318 0544 111F      		rol r17
 5319 0546 AA95      		dec r26
 5320 0548 01F4      		brne 1b
 5321 054a 00C0      		rjmp .L215
 5322               	.LVL444:
 5323               	.L214:
 5324               	.LSM383:
 5325 054c 892B      		or r24,r25
 5326 054e 01F4      		brne .+2
 5327 0550 00C0      		rjmp .L208
 5328               	.LSM384:
 5329 0552 6BA1      		ldd r22,Y+35
 5330 0554 7CA1      		ldd r23,Y+36
 5331 0556 8DA1      		ldd r24,Y+37
 5332 0558 9EA1      		ldd r25,Y+38
 5333 055a 260F      		add r18,r22
 5334 055c 371F      		adc r19,r23
 5335 055e 481F      		adc r20,r24
 5336 0560 591F      		adc r21,r25
 5337 0562 D601      		movw r26,r12
 5338 0564 9496      		adiw r26,36
 5339 0566 2D93      		st X+,r18
 5340 0568 3D93      		st X+,r19
 5341 056a 4D93      		st X+,r20
 5342 056c 5C93      		st X,r21
 5343 056e 9797      		sbiw r26,36+3
 5344 0570 C301      		movw r24,r6
 5345 0572 B201      		movw r22,r4
 5346 0574 660F      		lsl r22
 5347 0576 771F      		rol r23
 5348 0578 881F      		rol r24
 5349 057a 991F      		rol r25
 5350               	.LSM385:
 5351 057c B2E0      		ldi r27,lo8(2)
 5352 057e 3B16      		cp r3,r27
 5353 0580 01F4      		brne .L216
 5354 0582 7B01      		movw r14,r22
 5355 0584 8C01      		movw r16,r24
 5356               	.LVL445:
 5357 0586 00C0      		rjmp .L215
 5358               	.LVL446:
 5359               	.L216:
 5360 0588 7B01      		movw r14,r22
 5361 058a 8C01      		movw r16,r24
 5362               	.LVL447:
 5363 058c E40C      		add r14,r4
 5364 058e F51C      		adc r15,r5
 5365 0590 061D      		adc r16,r6
 5366 0592 171D      		adc r17,r7
 5367 0594 1695      		lsr r17
 5368 0596 0795      		ror r16
 5369 0598 F794      		ror r15
 5370 059a E794      		ror r14
 5371 059c 21E0      		ldi r18,lo8(1)
 5372 059e 30E0      		ldi r19,hi8(1)
 5373 05a0 40E0      		ldi r20,hlo8(1)
 5374 05a2 50E0      		ldi r21,hhi8(1)
 5375 05a4 4222      		and r4,r18
 5376 05a6 5322      		and r5,r19
 5377 05a8 6422      		and r6,r20
 5378 05aa 7522      		and r7,r21
 5379 05ac E40C      		add r14,r4
 5380 05ae F51C      		adc r15,r5
 5381 05b0 061D      		adc r16,r6
 5382 05b2 171D      		adc r17,r7
 5383               	.L215:
 5384               	.LSM386:
 5385 05b4 D601      		movw r26,r12
 5386 05b6 1A96      		adiw r26,10
 5387 05b8 2D91      		ld r18,X+
 5388 05ba 3C91      		ld r19,X
 5389 05bc 1B97      		sbiw r26,10+1
 5390 05be 2150      		subi r18,lo8(-(-1))
 5391 05c0 3040      		sbci r19,hi8(-(-1))
 5392 05c2 B901      		movw r22,r18
 5393 05c4 80E0      		ldi r24,lo8(0)
 5394 05c6 90E0      		ldi r25,hi8(0)
 5395 05c8 2F5F      		subi r18,lo8(-(1))
 5396 05ca 3F4F      		sbci r19,hi8(-(1))
 5397 05cc 6E0D      		add r22,r14
 5398 05ce 7F1D      		adc r23,r15
 5399 05d0 801F      		adc r24,r16
 5400 05d2 911F      		adc r25,r17
 5401 05d4 40E0      		ldi r20,lo8(0)
 5402 05d6 50E0      		ldi r21,hi8(0)
 5403 05d8 0E94 0000 		call __udivmodsi4
 5404 05dc F601      		movw r30,r12
 5405 05de 848D      		ldd r24,Z+28
 5406 05e0 958D      		ldd r25,Z+29
 5407 05e2 A68D      		ldd r26,Z+30
 5408 05e4 B78D      		ldd r27,Z+31
 5409 05e6 8217      		cp r24,r18
 5410 05e8 9307      		cpc r25,r19
 5411 05ea A407      		cpc r26,r20
 5412 05ec B507      		cpc r27,r21
 5413 05ee 00F4      		brsh .+2
 5414 05f0 00C0      		rjmp .L208
 5415               	.LSM387:
 5416 05f2 8FEF      		ldi r24,lo8(-1)
 5417 05f4 9FEF      		ldi r25,hi8(-1)
 5418 05f6 AFEF      		ldi r26,hlo8(-1)
 5419 05f8 BFEF      		ldi r27,hhi8(-1)
 5420 05fa 808B      		std Z+16,r24
 5421 05fc 918B      		std Z+17,r25
 5422 05fe A28B      		std Z+18,r26
 5423 0600 B38B      		std Z+19,r27
 5424               	.LSM388:
 5425 0602 D601      		movw r26,r12
 5426 0604 1C96      		adiw r26,12
 5427 0606 1D92      		st X+,__zero_reg__
 5428 0608 1D92      		st X+,__zero_reg__
 5429 060a 1D92      		st X+,__zero_reg__
 5430 060c 1C92      		st X,__zero_reg__
 5431 060e 1F97      		sbiw r26,12+3
 5432               	.LSM389:
 5433 0610 B3E0      		ldi r27,lo8(3)
 5434 0612 3B16      		cp r3,r27
 5435 0614 01F0      		breq .+2
 5436 0616 00C0      		rjmp .L217
 5437               	.LSM390:
 5438 0618 1582      		std Z+5,__zero_reg__
 5439               	.LSM391:
 5440 061a 21E6      		ldi r18,lo8(97)
 5441 061c 30E0      		ldi r19,hi8(97)
 5442 061e C20E      		add r12,r18
 5443 0620 D31E      		adc r13,r19
 5444 0622 D601      		movw r26,r12
 5445 0624 3C91      		ld r19,X
 5446 0626 20E0      		ldi r18,lo8(0)
 5447 0628 F601      		movw r30,r12
 5448 062a 8291      		ld r24,-Z
 5449 062c 6F01      		movw r12,r30
 5450 062e 40EA      		ldi r20,lo8(-96)
 5451 0630 5FEF      		ldi r21,hi8(-96)
 5452 0632 C40E      		add r12,r20
 5453 0634 D51E      		adc r13,r21
 5454 0636 90E0      		ldi r25,lo8(0)
 5455 0638 282B      		or r18,r24
 5456 063a 392B      		or r19,r25
 5457 063c 40E0      		ldi r20,lo8(0)
 5458 063e 50E0      		ldi r21,hi8(0)
 5459 0640 68A9      		ldd r22,Y+48
 5460 0642 79A9      		ldd r23,Y+49
 5461 0644 8AA9      		ldd r24,Y+50
 5462 0646 9BA9      		ldd r25,Y+51
 5463 0648 260F      		add r18,r22
 5464 064a 371F      		adc r19,r23
 5465 064c 481F      		adc r20,r24
 5466 064e 591F      		adc r21,r25
 5467 0650 D601      		movw r26,r12
 5468 0652 5496      		adiw r26,20
 5469 0654 2D93      		st X+,r18
 5470 0656 3D93      		st X+,r19
 5471 0658 4D93      		st X+,r20
 5472 065a 5C93      		st X,r21
 5473 065c 5797      		sbiw r26,20+3
 5474               	.LBE33:
 5475               	.LSM392:
 5476 065e B601      		movw r22,r12
 5477 0660 605D      		subi r22,lo8(-(48))
 5478 0662 7F4F      		sbci r23,hi8(-(48))
 5479 0664 1196      		adiw r26,1
 5480 0666 8C91      		ld r24,X
 5481 0668 01E0      		ldi r16,lo8(1)
 5482               	.LVL448:
 5483 066a 0E94 0000 		call disk_read
 5484               	.LBB34:
 5485 066e 8823      		tst r24
 5486 0670 01F0      		breq .+2
 5487 0672 00C0      		rjmp .L217
 5488 0674 EFE2      		ldi r30,lo8(559)
 5489 0676 F2E0      		ldi r31,hi8(559)
 5490 0678 CE0E      		add r12,r30
 5491 067a DF1E      		adc r13,r31
 5492 067c D601      		movw r26,r12
 5493 067e 9C91      		ld r25,X
 5494 0680 80E0      		ldi r24,lo8(0)
 5495 0682 F601      		movw r30,r12
 5496 0684 2291      		ld r18,-Z
 5497 0686 6F01      		movw r12,r30
 5498 0688 42ED      		ldi r20,lo8(-558)
 5499 068a 5DEF      		ldi r21,hi8(-558)
 5500 068c C40E      		add r12,r20
 5501 068e D51E      		adc r13,r21
 5502 0690 30E0      		ldi r19,lo8(0)
 5503 0692 822B      		or r24,r18
 5504 0694 932B      		or r25,r19
 5505 0696 8555      		subi r24,lo8(-21931)
 5506 0698 9A4A      		sbci r25,hi8(-21931)
 5507 069a 01F0      		breq .+2
 5508 069c 00C0      		rjmp .L217
 5509 069e D601      		movw r26,r12
 5510 06a0 D396      		adiw r26,51
 5511 06a2 2C91      		ld r18,X
 5512 06a4 D397      		sbiw r26,51
 5513 06a6 30E0      		ldi r19,lo8(0)
 5514 06a8 40E0      		ldi r20,lo8(0)
 5515 06aa 50E0      		ldi r21,hi8(0)
 5516 06ac 522F      		mov r21,r18
 5517 06ae 4427      		clr r20
 5518 06b0 3327      		clr r19
 5519 06b2 2227      		clr r18
 5520 06b4 D296      		adiw r26,50
 5521 06b6 8C91      		ld r24,X
 5522 06b8 90E0      		ldi r25,lo8(0)
 5523 06ba A0E0      		ldi r26,lo8(0)
 5524 06bc B0E0      		ldi r27,hi8(0)
 5525 06be DC01      		movw r26,r24
 5526 06c0 9927      		clr r25
 5527 06c2 8827      		clr r24
 5528 06c4 282B      		or r18,r24
 5529 06c6 392B      		or r19,r25
 5530 06c8 4A2B      		or r20,r26
 5531 06ca 5B2B      		or r21,r27
 5532 06cc F601      		movw r30,r12
 5533 06ce 80A9      		ldd r24,Z+48
 5534 06d0 90E0      		ldi r25,lo8(0)
 5535 06d2 A0E0      		ldi r26,lo8(0)
 5536 06d4 B0E0      		ldi r27,hi8(0)
 5537 06d6 282B      		or r18,r24
 5538 06d8 392B      		or r19,r25
 5539 06da 4A2B      		or r20,r26
 5540 06dc 5B2B      		or r21,r27
 5541 06de 91A9      		ldd r25,Z+49
 5542 06e0 80E0      		ldi r24,lo8(0)
 5543 06e2 A0E0      		ldi r26,lo8(0)
 5544 06e4 B0E0      		ldi r27,hi8(0)
 5545 06e6 282B      		or r18,r24
 5546 06e8 392B      		or r19,r25
 5547 06ea 4A2B      		or r20,r26
 5548 06ec 5B2B      		or r21,r27
 5549 06ee 2255      		subi r18,lo8(1096897106)
 5550 06f0 3245      		sbci r19,hi8(1096897106)
 5551 06f2 4146      		sbci r20,hlo8(1096897106)
 5552 06f4 5144      		sbci r21,hhi8(1096897106)
 5553 06f6 01F0      		breq .+2
 5554 06f8 00C0      		rjmp .L217
 5555 06fa 27E1      		ldi r18,lo8(535)
 5556 06fc 32E0      		ldi r19,hi8(535)
 5557 06fe C20E      		add r12,r18
 5558 0700 D31E      		adc r13,r19
 5559 0702 D601      		movw r26,r12
 5560 0704 2C91      		ld r18,X
 5561 0706 30E0      		ldi r19,lo8(0)
 5562 0708 40E0      		ldi r20,lo8(0)
 5563 070a 50E0      		ldi r21,hi8(0)
 5564 070c 522F      		mov r21,r18
 5565 070e 4427      		clr r20
 5566 0710 3327      		clr r19
 5567 0712 2227      		clr r18
 5568 0714 F601      		movw r30,r12
 5569 0716 8291      		ld r24,-Z
 5570 0718 6F01      		movw r12,r30
 5571 071a 90E0      		ldi r25,lo8(0)
 5572 071c A0E0      		ldi r26,lo8(0)
 5573 071e B0E0      		ldi r27,hi8(0)
 5574 0720 DC01      		movw r26,r24
 5575 0722 9927      		clr r25
 5576 0724 8827      		clr r24
 5577 0726 282B      		or r18,r24
 5578 0728 392B      		or r19,r25
 5579 072a 4A2B      		or r20,r26
 5580 072c 5B2B      		or r21,r27
 5581 072e 6EEF      		ldi r22,lo8(-2)
 5582 0730 7FEF      		ldi r23,hi8(-2)
 5583 0732 C60E      		add r12,r22
 5584 0734 D71E      		adc r13,r23
 5585 0736 D601      		movw r26,r12
 5586 0738 8D91      		ld r24,X+
 5587 073a 6D01      		movw r12,r26
 5588 073c 90E0      		ldi r25,lo8(0)
 5589 073e A0E0      		ldi r26,lo8(0)
 5590 0740 B0E0      		ldi r27,hi8(0)
 5591 0742 282B      		or r18,r24
 5592 0744 392B      		or r19,r25
 5593 0746 4A2B      		or r20,r26
 5594 0748 5B2B      		or r21,r27
 5595 074a F601      		movw r30,r12
 5596 074c 9081      		ld r25,Z
 5597 074e 6BEE      		ldi r22,lo8(-533)
 5598 0750 7DEF      		ldi r23,hi8(-533)
 5599 0752 C60E      		add r12,r22
 5600 0754 D71E      		adc r13,r23
 5601 0756 80E0      		ldi r24,lo8(0)
 5602 0758 A0E0      		ldi r26,lo8(0)
 5603 075a B0E0      		ldi r27,hi8(0)
 5604 075c 282B      		or r18,r24
 5605 075e 392B      		or r19,r25
 5606 0760 4A2B      		or r20,r26
 5607 0762 5B2B      		or r21,r27
 5608 0764 2257      		subi r18,lo8(1631679090)
 5609 0766 3247      		sbci r19,hi8(1631679090)
 5610 0768 4144      		sbci r20,hlo8(1631679090)
 5611 076a 5146      		sbci r21,hhi8(1631679090)
 5612 076c 01F0      		breq .+2
 5613 076e 00C0      		rjmp .L217
 5614               	.LSM393:
 5615 0770 8FE1      		ldi r24,lo8(543)
 5616 0772 92E0      		ldi r25,hi8(543)
 5617 0774 C80E      		add r12,r24
 5618 0776 D91E      		adc r13,r25
 5619 0778 D601      		movw r26,r12
 5620 077a 2C91      		ld r18,X
 5621 077c 30E0      		ldi r19,lo8(0)
 5622 077e 40E0      		ldi r20,lo8(0)
 5623 0780 50E0      		ldi r21,hi8(0)
 5624 0782 522F      		mov r21,r18
 5625 0784 4427      		clr r20
 5626 0786 3327      		clr r19
 5627 0788 2227      		clr r18
 5628 078a F601      		movw r30,r12
 5629 078c 8291      		ld r24,-Z
 5630 078e 6F01      		movw r12,r30
 5631 0790 90E0      		ldi r25,lo8(0)
 5632 0792 A0E0      		ldi r26,lo8(0)
 5633 0794 B0E0      		ldi r27,hi8(0)
 5634 0796 DC01      		movw r26,r24
 5635 0798 9927      		clr r25
 5636 079a 8827      		clr r24
 5637 079c 282B      		or r18,r24
 5638 079e 392B      		or r19,r25
 5639 07a0 4A2B      		or r20,r26
 5640 07a2 5B2B      		or r21,r27
 5641 07a4 6EEF      		ldi r22,lo8(-2)
 5642 07a6 7FEF      		ldi r23,hi8(-2)
 5643 07a8 C60E      		add r12,r22
 5644 07aa D71E      		adc r13,r23
 5645 07ac D601      		movw r26,r12
 5646 07ae 8D91      		ld r24,X+
 5647 07b0 6D01      		movw r12,r26
 5648 07b2 90E0      		ldi r25,lo8(0)
 5649 07b4 A0E0      		ldi r26,lo8(0)
 5650 07b6 B0E0      		ldi r27,hi8(0)
 5651 07b8 282B      		or r18,r24
 5652 07ba 392B      		or r19,r25
 5653 07bc 4A2B      		or r20,r26
 5654 07be 5B2B      		or r21,r27
 5655 07c0 F601      		movw r30,r12
 5656 07c2 9081      		ld r25,Z
 5657 07c4 63EE      		ldi r22,lo8(-541)
 5658 07c6 7DEF      		ldi r23,hi8(-541)
 5659 07c8 C60E      		add r12,r22
 5660 07ca D71E      		adc r13,r23
 5661 07cc 80E0      		ldi r24,lo8(0)
 5662 07ce A0E0      		ldi r26,lo8(0)
 5663 07d0 B0E0      		ldi r27,hi8(0)
 5664 07d2 282B      		or r18,r24
 5665 07d4 392B      		or r19,r25
 5666 07d6 4A2B      		or r20,r26
 5667 07d8 5B2B      		or r21,r27
 5668 07da D601      		movw r26,r12
 5669 07dc 1C96      		adiw r26,12
 5670 07de 2D93      		st X+,r18
 5671 07e0 3D93      		st X+,r19
 5672 07e2 4D93      		st X+,r20
 5673 07e4 5C93      		st X,r21
 5674 07e6 1F97      		sbiw r26,12+3
 5675               	.LSM394:
 5676 07e8 EBE1      		ldi r30,lo8(539)
 5677 07ea F2E0      		ldi r31,hi8(539)
 5678 07ec CE0E      		add r12,r30
 5679 07ee DF1E      		adc r13,r31
 5680 07f0 D601      		movw r26,r12
 5681 07f2 2C91      		ld r18,X
 5682 07f4 30E0      		ldi r19,lo8(0)
 5683 07f6 40E0      		ldi r20,lo8(0)
 5684 07f8 50E0      		ldi r21,hi8(0)
 5685 07fa 522F      		mov r21,r18
 5686 07fc 4427      		clr r20
 5687 07fe 3327      		clr r19
 5688 0800 2227      		clr r18
 5689 0802 F601      		movw r30,r12
 5690 0804 8291      		ld r24,-Z
 5691 0806 6F01      		movw r12,r30
 5692 0808 90E0      		ldi r25,lo8(0)
 5693 080a A0E0      		ldi r26,lo8(0)
 5694 080c B0E0      		ldi r27,hi8(0)
 5695 080e DC01      		movw r26,r24
 5696 0810 9927      		clr r25
 5697 0812 8827      		clr r24
 5698 0814 282B      		or r18,r24
 5699 0816 392B      		or r19,r25
 5700 0818 4A2B      		or r20,r26
 5701 081a 5B2B      		or r21,r27
 5702 081c 6EEF      		ldi r22,lo8(-2)
 5703 081e 7FEF      		ldi r23,hi8(-2)
 5704 0820 C60E      		add r12,r22
 5705 0822 D71E      		adc r13,r23
 5706 0824 D601      		movw r26,r12
 5707 0826 8D91      		ld r24,X+
 5708 0828 6D01      		movw r12,r26
 5709 082a 90E0      		ldi r25,lo8(0)
 5710 082c A0E0      		ldi r26,lo8(0)
 5711 082e B0E0      		ldi r27,hi8(0)
 5712 0830 282B      		or r18,r24
 5713 0832 392B      		or r19,r25
 5714 0834 4A2B      		or r20,r26
 5715 0836 5B2B      		or r21,r27
 5716 0838 F601      		movw r30,r12
 5717 083a 9081      		ld r25,Z
 5718 083c 67EE      		ldi r22,lo8(-537)
 5719 083e 7DEF      		ldi r23,hi8(-537)
 5720 0840 C60E      		add r12,r22
 5721 0842 D71E      		adc r13,r23
 5722 0844 80E0      		ldi r24,lo8(0)
 5723 0846 A0E0      		ldi r26,lo8(0)
 5724 0848 B0E0      		ldi r27,hi8(0)
 5725 084a 282B      		or r18,r24
 5726 084c 392B      		or r19,r25
 5727 084e 4A2B      		or r20,r26
 5728 0850 5B2B      		or r21,r27
 5729 0852 D601      		movw r26,r12
 5730 0854 5096      		adiw r26,16
 5731 0856 2D93      		st X+,r18
 5732 0858 3D93      		st X+,r19
 5733 085a 4D93      		st X+,r20
 5734 085c 5C93      		st X,r21
 5735 085e 5397      		sbiw r26,16+3
 5736               	.LVL449:
 5737               	.L217:
 5738               	.LSM395:
 5739 0860 F601      		movw r30,r12
 5740 0862 3082      		st Z,r3
 5741               	.LSM396:
 5742 0864 8091 0000 		lds r24,Fsid
 5743 0868 9091 0000 		lds r25,(Fsid)+1
 5744 086c 0196      		adiw r24,1
 5745 086e 9093 0000 		sts (Fsid)+1,r25
 5746 0872 8093 0000 		sts Fsid,r24
 5747 0876 9783      		std Z+7,r25
 5748 0878 8683      		std Z+6,r24
 5749               	.LSM397:
 5750 087a D601      		movw r26,r12
 5751 087c 9C96      		adiw r26,44
 5752 087e 1D92      		st X+,__zero_reg__
 5753 0880 1D92      		st X+,__zero_reg__
 5754 0882 1D92      		st X+,__zero_reg__
 5755 0884 1C92      		st X,__zero_reg__
 5756 0886 9F97      		sbiw r26,44+3
 5757               	.LSM398:
 5758 0888 1496      		adiw r26,4
 5759 088a 1C92      		st X,__zero_reg__
 5760 088c 00C0      		rjmp .L201
 5761               	.LVL450:
 5762               	.L202:
 5763 088e 5AE0      		ldi r21,lo8(10)
 5764 0890 F52E      		mov r15,r21
 5765               	.LVL451:
 5766 0892 00C0      		rjmp .L198
 5767               	.LVL452:
 5768               	.L201:
 5769 0894 FF24      		clr r15
 5770               	.LVL453:
 5771 0896 00C0      		rjmp .L198
 5772               	.LVL454:
 5773               	.L204:
 5774 0898 FF24      		clr r15
 5775 089a F394      		inc r15
 5776               	.LVL455:
 5777 089c 00C0      		rjmp .L198
 5778               	.LVL456:
 5779               	.L208:
 5780 089e 4DE0      		ldi r20,lo8(13)
 5781 08a0 F42E      		mov r15,r20
 5782               	.LVL457:
 5783               	.L198:
 5784               	.LBE34:
 5785               	.LBE35:
 5786               	.LSM399:
 5787 08a2 CE01      		movw r24,r28
 5788               	.LVL458:
 5789 08a4 0196      		adiw r24,1
 5790 08a6 9AA3      		std Y+34,r25
 5791 08a8 89A3      		std Y+33,r24
 5792               	.LSM400:
 5793 08aa FF20      		tst r15
 5794 08ac 01F0      		breq .+2
 5795 08ae 00C0      		rjmp .L218
 5796               	.LBB36:
 5797               	.LBB37:
 5798               	.LSM401:
 5799 08b0 EEA9      		ldd r30,Y+54
 5800 08b2 FFA9      		ldd r31,Y+55
 5801               	.LVL459:
 5802 08b4 8081      		ld r24,Z
 5803 08b6 8F32      		cpi r24,lo8(47)
 5804 08b8 01F0      		breq .L219
 5805 08ba 8C35      		cpi r24,lo8(92)
 5806 08bc 01F4      		brne .L220
 5807               	.L219:
 5808               	.LSM402:
 5809 08be 2EA9      		ldd r18,Y+54
 5810 08c0 3FA9      		ldd r19,Y+55
 5811               	.LVL460:
 5812 08c2 2F5F      		subi r18,lo8(-(1))
 5813 08c4 3F4F      		sbci r19,hi8(-(1))
 5814 08c6 3FAB      		std Y+55,r19
 5815 08c8 2EAB      		std Y+54,r18
 5816               	.LVL461:
 5817               	.L220:
 5818               	.LSM403:
 5819 08ca 1B8A      		std Y+19,__zero_reg__
 5820 08cc 1C8A      		std Y+20,__zero_reg__
 5821 08ce 1D8A      		std Y+21,__zero_reg__
 5822 08d0 1E8A      		std Y+22,__zero_reg__
 5823               	.LSM404:
 5824 08d2 AEA9      		ldd r26,Y+54
 5825 08d4 BFA9      		ldd r27,Y+55
 5826 08d6 8C91      		ld r24,X
 5827 08d8 8032      		cpi r24,lo8(32)
 5828 08da 00F4      		brsh .L274
 5829               	.LBE37:
 5830               	.LSM405:
 5831 08dc CE01      		movw r24,r28
 5832 08de 0D96      		adiw r24,13
 5833 08e0 60E0      		ldi r22,lo8(0)
 5834 08e2 70E0      		ldi r23,hi8(0)
 5835 08e4 0E94 0000 		call dir_sdi
 5836               	.LVL462:
 5837 08e8 F82E      		mov r15,r24
 5838               	.LBB52:
 5839               	.LSM406:
 5840 08ea 18A2      		std Y+32,__zero_reg__
 5841 08ec 1F8E      		std Y+31,__zero_reg__
 5842 08ee 00C0      		rjmp .L218
 5843               	.LVL463:
 5844               	.L222:
 5845               	.LBB38:
 5846               	.LBB40:
 5847               	.LSM407:
 5848 08f0 EEA9      		ldd r30,Y+54
 5849 08f2 FFA9      		ldd r31,Y+55
 5850               	.LVL464:
 5851 08f4 3196      		adiw r30,1
 5852 08f6 FFAB      		std Y+55,r31
 5853 08f8 EEAB      		std Y+54,r30
 5854               	.LVL465:
 5855 08fa 00C0      		rjmp .L279
 5856               	.LVL466:
 5857               	.L274:
 5858               	.LBE40:
 5859               	.LBE38:
 5860               	.LBB44:
 5861               	.LSM408:
 5862 08fc 3DE0      		ldi r19,lo8(13)
 5863 08fe 632E      		mov r6,r19
 5864 0900 712C      		mov r7,__zero_reg__
 5865               	.LVL467:
 5866 0902 6C0E      		add r6,r28
 5867 0904 7D1E      		adc r7,r29
 5868               	.LBE44:
 5869               	.LBB49:
 5870               	.LBB39:
 5871               	.LSM409:
 5872 0906 25E0      		ldi r18,lo8(5)
 5873 0908 522E      		mov r5,r18
 5874               	.LVL468:
 5875               	.L279:
 5876               	.LSM410:
 5877 090a AEA9      		ldd r26,Y+54
 5878 090c BFA9      		ldd r27,Y+55
 5879 090e 8C91      		ld r24,X
 5880 0910 8F32      		cpi r24,lo8(47)
 5881 0912 01F0      		breq .L222
 5882 0914 8C35      		cpi r24,lo8(92)
 5883 0916 01F0      		breq .L222
 5884               	.LSM411:
 5885 0918 09A1      		ldd r16,Y+33
 5886 091a 1AA1      		ldd r17,Y+34
 5887               	.LVL469:
 5888               	.LSM412:
 5889 091c C801      		movw r24,r16
 5890 091e 60E2      		ldi r22,lo8(32)
 5891 0920 70E0      		ldi r23,hi8(32)
 5892 0922 4BE0      		ldi r20,lo8(11)
 5893 0924 50E0      		ldi r21,hi8(11)
 5894 0926 0E94 0000 		call mem_set
 5895               	.LVL470:
 5896 092a 40E0      		ldi r20,lo8(0)
 5897 092c 50E0      		ldi r21,hi8(0)
 5898               	.LVL471:
 5899 092e EE24      		clr r14
 5900 0930 FF24      		clr r15
 5901               	.LVL472:
 5902 0932 98E0      		ldi r25,lo8(8)
 5903 0934 C92E      		mov r12,r25
 5904 0936 D12C      		mov r13,__zero_reg__
 5905               	.LVL473:
 5906 0938 A0E0      		ldi r26,lo8(0)
 5907               	.LVL474:
 5908               	.L280:
 5909               	.LSM413:
 5910 093a EEA9      		ldd r30,Y+54
 5911 093c FFA9      		ldd r31,Y+55
 5912 093e EE0D      		add r30,r14
 5913 0940 FF1D      		adc r31,r15
 5914 0942 2081      		ld r18,Z
 5915 0944 0894      		sec
 5916 0946 E11C      		adc r14,__zero_reg__
 5917 0948 F11C      		adc r15,__zero_reg__
 5918               	.LSM414:
 5919 094a 2132      		cpi r18,lo8(33)
 5920 094c 00F4      		brsh .+2
 5921 094e 00C0      		rjmp .L223
 5922 0950 2F32      		cpi r18,lo8(47)
 5923 0952 01F4      		brne .+2
 5924 0954 00C0      		rjmp .L224
 5925 0956 2C35      		cpi r18,lo8(92)
 5926 0958 01F4      		brne .+2
 5927 095a 00C0      		rjmp .L224
 5928               	.LSM415:
 5929 095c 2E32      		cpi r18,lo8(46)
 5930 095e 01F0      		breq .L225
 5931 0960 4C15      		cp r20,r12
 5932 0962 5D05      		cpc r21,r13
 5933 0964 00F0      		brlo .L226
 5934               	.L225:
 5935               	.LSM416:
 5936 0966 B8E0      		ldi r27,lo8(8)
 5937 0968 CB16      		cp r12,r27
 5938 096a D104      		cpc r13,__zero_reg__
 5939 096c 01F0      		breq .+2
 5940 096e 00C0      		rjmp .L227
 5941 0970 2E32      		cpi r18,lo8(46)
 5942 0972 01F0      		breq .+2
 5943 0974 00C0      		rjmp .L227
 5944               	.LSM417:
 5945 0976 AA0F      		lsl r26
 5946 0978 AA0F      		lsl r26
 5947 097a 48E0      		ldi r20,lo8(8)
 5948 097c 50E0      		ldi r21,hi8(8)
 5949 097e 8BE0      		ldi r24,lo8(11)
 5950 0980 C82E      		mov r12,r24
 5951 0982 D12C      		mov r13,__zero_reg__
 5952 0984 00C0      		rjmp .L280
 5953               	.L226:
 5954               	.LSM418:
 5955 0986 27FD      		sbrc r18,7
 5956               	.LSM419:
 5957 0988 A360      		ori r26,lo8(3)
 5958               	.L229:
 5959               	.LSM420:
 5960 098a 822F      		mov r24,r18
 5961 098c 8158      		subi r24,lo8(-(127))
 5962 098e 8F31      		cpi r24,lo8(31)
 5963 0990 00F0      		brlo .L230
 5964 0992 8F55      		subi r24,lo8(-(-95))
 5965 0994 8D31      		cpi r24,lo8(29)
 5966 0996 00F4      		brsh .L231
 5967               	.L230:
 5968               	.LSM421:
 5969 0998 EEA9      		ldd r30,Y+54
 5970 099a FFA9      		ldd r31,Y+55
 5971 099c EE0D      		add r30,r14
 5972 099e FF1D      		adc r31,r15
 5973 09a0 3081      		ld r19,Z
 5974               	.LSM422:
 5975 09a2 832F      		mov r24,r19
 5976 09a4 8054      		subi r24,lo8(-(-64))
 5977 09a6 8F33      		cpi r24,lo8(63)
 5978 09a8 00F0      		brlo .L232
 5979 09aa 8054      		subi r24,lo8(-(-64))
 5980 09ac 8D37      		cpi r24,lo8(125)
 5981 09ae 00F0      		brlo .+2
 5982 09b0 00C0      		rjmp .L227
 5983               	.L232:
 5984 09b2 C601      		movw r24,r12
 5985 09b4 0197      		sbiw r24,1
 5986 09b6 4817      		cp r20,r24
 5987 09b8 5907      		cpc r21,r25
 5988 09ba 00F0      		brlo .+2
 5989 09bc 00C0      		rjmp .L227
 5990               	.LSM423:
 5991 09be 0894      		sec
 5992 09c0 E11C      		adc r14,__zero_reg__
 5993 09c2 F11C      		adc r15,__zero_reg__
 5994               	.LSM424:
 5995 09c4 F801      		movw r30,r16
 5996 09c6 E40F      		add r30,r20
 5997 09c8 F51F      		adc r31,r21
 5998 09ca 2083      		st Z,r18
 5999 09cc CA01      		movw r24,r20
 6000 09ce 0196      		adiw r24,1
 6001               	.LVL475:
 6002               	.LSM425:
 6003 09d0 F801      		movw r30,r16
 6004 09d2 E80F      		add r30,r24
 6005 09d4 F91F      		adc r31,r25
 6006 09d6 3083      		st Z,r19
 6007 09d8 AC01      		movw r20,r24
 6008 09da 00C0      		rjmp .L281
 6009               	.LVL476:
 6010               	.L231:
 6011               	.LSM426:
 6012 09dc 622F      		mov r22,r18
 6013 09de 70E0      		ldi r23,lo8(0)
 6014 09e0 E0E0      		ldi r30,lo8(.LC0)
 6015 09e2 F0E0      		ldi r31,hi8(.LC0)
 6016               	.LVL477:
 6017 09e4 00C0      		rjmp .L233
 6018               	.L235:
 6019               	.LBB41:
 6020               	.LBB42:
 6021               	.LSM427:
 6022 09e6 3196      		adiw r30,1
 6023               	.L233:
 6024 09e8 8081      		ld r24,Z
 6025 09ea 8823      		tst r24
 6026 09ec 01F0      		breq .L234
 6027 09ee 90E0      		ldi r25,lo8(0)
 6028 09f0 8617      		cp r24,r22
 6029 09f2 9707      		cpc r25,r23
 6030 09f4 01F4      		brne .L235
 6031 09f6 00C0      		rjmp .L227
 6032               	.L234:
 6033               	.LBE42:
 6034               	.LBE41:
 6035               	.LSM428:
 6036 09f8 822F      		mov r24,r18
 6037 09fa 8154      		subi r24,lo8(-(-65))
 6038 09fc 8A31      		cpi r24,lo8(26)
 6039 09fe 00F4      		brsh .L236
 6040               	.LSM429:
 6041 0a00 A260      		ori r26,lo8(2)
 6042 0a02 00C0      		rjmp .L237
 6043               	.L236:
 6044               	.LSM430:
 6045 0a04 822F      		mov r24,r18
 6046 0a06 8156      		subi r24,lo8(-(-97))
 6047 0a08 8A31      		cpi r24,lo8(26)
 6048 0a0a 00F4      		brsh .L237
 6049               	.LSM431:
 6050 0a0c A160      		ori r26,lo8(1)
 6051 0a0e 2052      		subi r18,lo8(-(-32))
 6052               	.L237:
 6053               	.LSM432:
 6054 0a10 F801      		movw r30,r16
 6055               	.LVL478:
 6056 0a12 E40F      		add r30,r20
 6057 0a14 F51F      		adc r31,r21
 6058 0a16 2083      		st Z,r18
 6059               	.LVL479:
 6060               	.L281:
 6061 0a18 4F5F      		subi r20,lo8(-(1))
 6062 0a1a 5F4F      		sbci r21,hi8(-(1))
 6063 0a1c 00C0      		rjmp .L280
 6064               	.L223:
 6065 0a1e 64E0      		ldi r22,lo8(4)
 6066               	.LVL480:
 6067               	.L271:
 6068               	.LSM433:
 6069 0a20 452B      		or r20,r21
 6070 0a22 01F4      		brne .+2
 6071 0a24 00C0      		rjmp .L227
 6072               	.LSM434:
 6073 0a26 F801      		movw r30,r16
 6074 0a28 8081      		ld r24,Z
 6075 0a2a 853E      		cpi r24,lo8(-27)
 6076 0a2c 01F4      		brne .L238
 6077 0a2e 5082      		st Z,r5
 6078               	.L238:
 6079               	.LSM435:
 6080 0a30 F8E0      		ldi r31,lo8(8)
 6081 0a32 CF16      		cp r12,r31
 6082 0a34 D104      		cpc r13,__zero_reg__
 6083 0a36 01F4      		brne .L239
 6084 0a38 AA0F      		lsl r26
 6085 0a3a AA0F      		lsl r26
 6086               	.L239:
 6087               	.LSM436:
 6088 0a3c 2A2F      		mov r18,r26
 6089 0a3e 30E0      		ldi r19,lo8(0)
 6090               	.LVL481:
 6091 0a40 C901      		movw r24,r18
 6092 0a42 8370      		andi r24,lo8(3)
 6093 0a44 9070      		andi r25,hi8(3)
 6094 0a46 0197      		sbiw r24,1
 6095 0a48 01F4      		brne .L240
 6096 0a4a 6061      		ori r22,lo8(16)
 6097               	.L240:
 6098               	.LSM437:
 6099 0a4c 2C70      		andi r18,lo8(12)
 6100 0a4e 3070      		andi r19,hi8(12)
 6101 0a50 2430      		cpi r18,4
 6102 0a52 3105      		cpc r19,__zero_reg__
 6103 0a54 01F4      		brne .L241
 6104 0a56 6860      		ori r22,lo8(8)
 6105               	.L241:
 6106               	.LSM438:
 6107 0a58 D801      		movw r26,r16
 6108               	.LVL482:
 6109 0a5a 1B96      		adiw r26,11
 6110 0a5c 6C93      		st X,r22
 6111               	.LBE39:
 6112               	.LBE49:
 6113               	.LBB50:
 6114               	.LSM439:
 6115 0a5e C301      		movw r24,r6
 6116 0a60 60E0      		ldi r22,lo8(0)
 6117 0a62 70E0      		ldi r23,hi8(0)
 6118               	.LVL483:
 6119 0a64 0E94 0000 		call dir_sdi
 6120               	.LVL484:
 6121               	.L282:
 6122 0a68 482F      		mov r20,r24
 6123               	.LVL485:
 6124               	.LBB45:
 6125               	.LSM440:
 6126 0a6a 8823      		tst r24
 6127 0a6c 01F4      		brne .L242
 6128               	.LVL486:
 6129               	.LBE45:
 6130               	.LSM441:
 6131 0a6e 4B8D      		ldd r20,Y+27
 6132 0a70 5C8D      		ldd r21,Y+28
 6133 0a72 6D8D      		ldd r22,Y+29
 6134 0a74 7E8D      		ldd r23,Y+30
 6135 0a76 8D85      		ldd r24,Y+13
 6136 0a78 9E85      		ldd r25,Y+14
 6137               	.LVL487:
 6138 0a7a 0E94 0000 		call move_window
 6139 0a7e 482F      		mov r20,r24
 6140               	.LVL488:
 6141               	.LBB48:
 6142               	.LSM442:
 6143 0a80 8823      		tst r24
 6144 0a82 01F4      		brne .L242
 6145               	.LVL489:
 6146               	.LSM443:
 6147 0a84 EF8D      		ldd r30,Y+31
 6148 0a86 F8A1      		ldd r31,Y+32
 6149               	.LVL490:
 6150               	.LSM444:
 6151 0a88 8081      		ld r24,Z
 6152               	.LVL491:
 6153 0a8a 8823      		tst r24
 6154 0a8c 01F4      		brne .L243
 6155 0a8e 44E0      		ldi r20,lo8(4)
 6156 0a90 00C0      		rjmp .L242
 6157               	.L243:
 6158               	.LSM445:
 6159 0a92 8385      		ldd r24,Z+11
 6160 0a94 83FD      		sbrc r24,3
 6161 0a96 00C0      		rjmp .L244
 6162 0a98 89A1      		ldd r24,Y+33
 6163               	.LVL492:
 6164 0a9a 9AA1      		ldd r25,Y+34
 6165               	.LVL493:
 6166 0a9c 9C01      		movw r18,r24
 6167               	.LVL494:
 6168 0a9e D901      		movw r26,r18
 6169               	.LVL495:
 6170 0aa0 2BE0      		ldi r18,lo8(11)
 6171 0aa2 30E0      		ldi r19,hi8(11)
 6172               	.LVL496:
 6173               	.L245:
 6174               	.LBB46:
 6175               	.LBB47:
 6176               	.LSM446:
 6177 0aa4 2150      		subi r18,lo8(-(-1))
 6178 0aa6 3040      		sbci r19,hi8(-(-1))
 6179 0aa8 5FEF      		ldi r21,hi8(-1)
 6180 0aaa 2F3F      		cpi r18,lo8(-1)
 6181 0aac 3507      		cpc r19,r21
 6182 0aae 01F0      		breq .L242
 6183 0ab0 9081      		ld r25,Z
 6184               	.LVL497:
 6185 0ab2 8C91      		ld r24,X
 6186 0ab4 9817      		cp r25,r24
 6187 0ab6 01F4      		brne .L244
 6188 0ab8 3196      		adiw r30,1
 6189               	.LVL498:
 6190 0aba 1196      		adiw r26,1
 6191 0abc 00C0      		rjmp .L245
 6192               	.LVL499:
 6193               	.L244:
 6194               	.LBE47:
 6195               	.LBE46:
 6196               	.LBE48:
 6197               	.LSM447:
 6198 0abe C301      		movw r24,r6
 6199 0ac0 60E0      		ldi r22,lo8(0)
 6200 0ac2 70E0      		ldi r23,hi8(0)
 6201 0ac4 0E94 0000 		call dir_next
 6202               	.LVL500:
 6203 0ac8 00C0      		rjmp .L282
 6204               	.LVL501:
 6205               	.L242:
 6206               	.LBE50:
 6207               	.LSM448:
 6208 0aca E9A1      		ldd r30,Y+33
 6209 0acc FAA1      		ldd r31,Y+34
 6210               	.LVL502:
 6211 0ace 8385      		ldd r24,Z+11
 6212               	.LVL503:
 6213               	.LSM449:
 6214 0ad0 4423      		tst r20
 6215 0ad2 01F0      		breq .L247
 6216 0ad4 F42E      		mov r15,r20
 6217               	.LSM450:
 6218 0ad6 64E0      		ldi r22,lo8(4)
 6219 0ad8 4617      		cp r20,r22
 6220 0ada 01F4      		brne .L248
 6221               	.LSM451:
 6222 0adc 82FF      		sbrs r24,2
 6223 0ade 00C0      		rjmp .L249
 6224 0ae0 00C0      		rjmp .L218
 6225               	.LVL504:
 6226               	.L247:
 6227               	.LSM452:
 6228 0ae2 82FD      		sbrc r24,2
 6229 0ae4 00C0      		rjmp .L248
 6230               	.LSM453:
 6231 0ae6 EF8D      		ldd r30,Y+31
 6232 0ae8 F8A1      		ldd r31,Y+32
 6233               	.LVL505:
 6234               	.LSM454:
 6235 0aea 8385      		ldd r24,Z+11
 6236               	.LVL506:
 6237 0aec 84FF      		sbrs r24,4
 6238 0aee 00C0      		rjmp .L249
 6239               	.LBB51:
 6240               	.LBB43:
 6241               	.LSM455:
 6242 0af0 8EA9      		ldd r24,Y+54
 6243 0af2 9FA9      		ldd r25,Y+55
 6244 0af4 8E0D      		add r24,r14
 6245 0af6 9F1D      		adc r25,r15
 6246 0af8 9FAB      		std Y+55,r25
 6247 0afa 8EAB      		std Y+54,r24
 6248               	.LVL507:
 6249               	.LBE43:
 6250               	.LBE51:
 6251               	.LSM456:
 6252 0afc 9588      		ldd r9,Z+21
 6253 0afe 8824      		clr r8
 6254               	.LVL508:
 6255 0b00 2489      		ldd r18,Z+20
 6256               	.LVL509:
 6257 0b02 30E0      		ldi r19,lo8(0)
 6258 0b04 2829      		or r18,r8
 6259 0b06 3929      		or r19,r9
 6260 0b08 40E0      		ldi r20,lo8(0)
 6261 0b0a 50E0      		ldi r21,hi8(0)
 6262               	.LVL510:
 6263 0b0c A901      		movw r20,r18
 6264 0b0e 3327      		clr r19
 6265 0b10 2227      		clr r18
 6266 0b12 B38C      		ldd r11,Z+27
 6267               	.LVL511:
 6268 0b14 AA24      		clr r10
 6269               	.LVL512:
 6270 0b16 828D      		ldd r24,Z+26
 6271 0b18 90E0      		ldi r25,lo8(0)
 6272               	.LVL513:
 6273 0b1a 8A29      		or r24,r10
 6274 0b1c 9B29      		or r25,r11
 6275 0b1e A0E0      		ldi r26,lo8(0)
 6276 0b20 B0E0      		ldi r27,hi8(0)
 6277               	.LVL514:
 6278 0b22 282B      		or r18,r24
 6279 0b24 392B      		or r19,r25
 6280 0b26 4A2B      		or r20,r26
 6281 0b28 5B2B      		or r21,r27
 6282 0b2a 2B8B      		std Y+19,r18
 6283 0b2c 3C8B      		std Y+20,r19
 6284 0b2e 4D8B      		std Y+21,r20
 6285 0b30 5E8B      		std Y+22,r21
 6286 0b32 00C0      		rjmp .L279
 6287               	.LVL515:
 6288               	.L227:
 6289 0b34 B6E0      		ldi r27,lo8(6)
 6290 0b36 FB2E      		mov r15,r27
 6291 0b38 00C0      		rjmp .L218
 6292               	.LVL516:
 6293               	.L248:
 6294 0b3a F42E      		mov r15,r20
 6295 0b3c 00C0      		rjmp .L218
 6296               	.LVL517:
 6297               	.L249:
 6298 0b3e A5E0      		ldi r26,lo8(5)
 6299 0b40 FA2E      		mov r15,r26
 6300               	.LVL518:
 6301               	.L218:
 6302               	.LBE52:
 6303               	.LBE36:
 6304               	.LSM457:
 6305 0b42 4F8C      		ldd r4,Y+31
 6306 0b44 58A0      		ldd r5,Y+32
 6307               	.LVL519:
 6308               	.LSM458:
 6309 0b46 FF20      		tst r15
 6310 0b48 01F4      		brne .L250
 6311               	.LSM459:
 6312 0b4a 4114      		cp r4,__zero_reg__
 6313 0b4c 5104      		cpc r5,__zero_reg__
 6314 0b4e 01F4      		brne .L250
 6315 0b50 F6E0      		ldi r31,lo8(6)
 6316 0b52 FF2E      		mov r15,r31
 6317               	.LVL520:
 6318               	.L250:
 6319               	.LSM460:
 6320 0b54 9BA5      		ldd r25,Y+43
 6321               	.LVL521:
 6322 0b56 292F      		mov r18,r25
 6323               	.LVL522:
 6324 0b58 30E0      		ldi r19,lo8(0)
 6325               	.LVL523:
 6326 0b5a C901      		movw r24,r18
 6327               	.LVL524:
 6328 0b5c 8C71      		andi r24,lo8(28)
 6329 0b5e 9070      		andi r25,hi8(28)
 6330 0b60 892B      		or r24,r25
 6331 0b62 01F4      		brne .+2
 6332 0b64 00C0      		rjmp .L251
 6333               	.LBB53:
 6334               	.LSM461:
 6335 0b66 FF20      		tst r15
 6336 0b68 01F4      		brne .+2
 6337 0b6a 00C0      		rjmp .L252
 6338               	.LSM462:
 6339 0b6c A4E0      		ldi r26,lo8(4)
 6340               	.LVL525:
 6341 0b6e FA16      		cp r15,r26
 6342 0b70 01F4      		brne .L253
 6343               	.LBB58:
 6344               	.LSM463:
 6345 0b72 8E01      		movw r16,r28
 6346               	.LVL526:
 6347 0b74 035F      		subi r16,lo8(-(13))
 6348 0b76 1F4F      		sbci r17,hi8(-(13))
 6349 0b78 C801      		movw r24,r16
 6350 0b7a 60E0      		ldi r22,lo8(0)
 6351 0b7c 70E0      		ldi r23,hi8(0)
 6352               	.LVL527:
 6353 0b7e 0E94 0000 		call dir_sdi
 6354               	.LVL528:
 6355 0b82 F82E      		mov r15,r24
 6356               	.LBB61:
 6357               	.LSM464:
 6358 0b84 8823      		tst r24
 6359 0b86 01F4      		brne .L253
 6360               	.LVL529:
 6361               	.L275:
 6362               	.LBE61:
 6363               	.LSM465:
 6364 0b88 4B8D      		ldd r20,Y+27
 6365 0b8a 5C8D      		ldd r21,Y+28
 6366 0b8c 6D8D      		ldd r22,Y+29
 6367 0b8e 7E8D      		ldd r23,Y+30
 6368 0b90 8D85      		ldd r24,Y+13
 6369 0b92 9E85      		ldd r25,Y+14
 6370               	.LVL530:
 6371 0b94 0E94 0000 		call move_window
 6372 0b98 F82E      		mov r15,r24
 6373               	.LBB60:
 6374               	.LSM466:
 6375 0b9a 8823      		tst r24
 6376 0b9c 01F4      		brne .L253
 6377               	.LVL531:
 6378               	.LSM467:
 6379 0b9e EF8D      		ldd r30,Y+31
 6380 0ba0 F8A1      		ldd r31,Y+32
 6381 0ba2 E081      		ld r30,Z
 6382               	.LVL532:
 6383               	.LSM468:
 6384 0ba4 E53E      		cpi r30,lo8(-27)
 6385 0ba6 01F4      		brne .+2
 6386 0ba8 00C0      		rjmp .L254
 6387 0baa EE23      		tst r30
 6388 0bac 01F4      		brne .+2
 6389 0bae 00C0      		rjmp .L254
 6390               	.LBE60:
 6391               	.LSM469:
 6392 0bb0 C801      		movw r24,r16
 6393               	.LVL533:
 6394 0bb2 61E0      		ldi r22,lo8(1)
 6395 0bb4 70E0      		ldi r23,hi8(1)
 6396 0bb6 0E94 0000 		call dir_next
 6397               	.LVL534:
 6398 0bba F82E      		mov r15,r24
 6399               	.LBB59:
 6400               	.LSM470:
 6401 0bbc 8823      		tst r24
 6402 0bbe 01F0      		breq .L275
 6403               	.LVL535:
 6404 0bc0 00C0      		rjmp .L253
 6405               	.L283:
 6406               	.LSM471:
 6407 0bc2 0F8D      		ldd r16,Y+31
 6408 0bc4 18A1      		ldd r17,Y+32
 6409               	.LVL536:
 6410               	.LSM472:
 6411 0bc6 C801      		movw r24,r16
 6412               	.LVL537:
 6413 0bc8 60E0      		ldi r22,lo8(0)
 6414 0bca 70E0      		ldi r23,hi8(0)
 6415 0bcc 40E2      		ldi r20,lo8(32)
 6416 0bce 50E0      		ldi r21,hi8(32)
 6417 0bd0 0E94 0000 		call mem_set
 6418               	.LSM473:
 6419 0bd4 69A1      		ldd r22,Y+33
 6420 0bd6 7AA1      		ldd r23,Y+34
 6421 0bd8 C801      		movw r24,r16
 6422 0bda 4BE0      		ldi r20,lo8(11)
 6423 0bdc 50E0      		ldi r21,hi8(11)
 6424 0bde 0E94 0000 		call mem_cpy
 6425               	.LSM474:
 6426 0be2 ED85      		ldd r30,Y+13
 6427 0be4 FE85      		ldd r31,Y+14
 6428 0be6 81E0      		ldi r24,lo8(1)
 6429 0be8 8483      		std Z+4,r24
 6430               	.LVL538:
 6431               	.L253:
 6432               	.LBE59:
 6433               	.LBE58:
 6434               	.LSM475:
 6435 0bea 4F8C      		ldd r4,Y+31
 6436 0bec 58A0      		ldd r5,Y+32
 6437               	.LSM476:
 6438 0bee FF20      		tst r15
 6439 0bf0 01F0      		breq .+2
 6440 0bf2 00C0      		rjmp .L256
 6441               	.LSM477:
 6442 0bf4 BBA5      		ldd r27,Y+43
 6443 0bf6 B860      		ori r27,lo8(8)
 6444 0bf8 BBA7      		std Y+43,r27
 6445               	.LVL539:
 6446 0bfa 00C0      		rjmp .L257
 6447               	.LVL540:
 6448               	.L252:
 6449               	.LSM478:
 6450 0bfc F201      		movw r30,r4
 6451               	.LVL541:
 6452 0bfe 8385      		ldd r24,Z+11
 6453 0c00 8171      		andi r24,lo8(17)
 6454 0c02 01F0      		breq .+2
 6455 0c04 00C0      		rjmp .L268
 6456               	.L258:
 6457               	.LSM479:
 6458 0c06 22FD      		sbrc r18,2
 6459 0c08 00C0      		rjmp .L259
 6460               	.LVL542:
 6461               	.L257:
 6462               	.LSM480:
 6463 0c0a FBA5      		ldd r31,Y+43
 6464 0c0c F3FF      		sbrs r31,3
 6465 0c0e 00C0      		rjmp .L260
 6466               	.LSM481:
 6467 0c10 0E94 0000 		call get_fattime
 6468               	.LVL543:
 6469               	.LSM482:
 6470 0c14 D201      		movw r26,r4
 6471 0c16 1E96      		adiw r26,14
 6472 0c18 6C93      		st X,r22
 6473 0c1a 1E97      		sbiw r26,14
 6474               	.LVL544:
 6475 0c1c 272F      		mov r18,r23
 6476 0c1e 3327      		clr r19
 6477 0c20 1F96      		adiw r26,15
 6478 0c22 2C93      		st X,r18
 6479 0c24 1F97      		sbiw r26,15
 6480 0c26 9C01      		movw r18,r24
 6481 0c28 4427      		clr r20
 6482 0c2a 5527      		clr r21
 6483 0c2c 5096      		adiw r26,16
 6484 0c2e 2C93      		st X,r18
 6485 0c30 5097      		sbiw r26,16
 6486 0c32 692F      		mov r22,r25
 6487 0c34 7727      		clr r23
 6488 0c36 8827      		clr r24
 6489 0c38 9927      		clr r25
 6490               	.LVL545:
 6491 0c3a 5196      		adiw r26,17
 6492 0c3c 6C93      		st X,r22
 6493 0c3e 5197      		sbiw r26,17
 6494               	.LSM483:
 6495 0c40 1B96      		adiw r26,11
 6496 0c42 1C92      		st X,__zero_reg__
 6497 0c44 1B97      		sbiw r26,11
 6498               	.LSM484:
 6499 0c46 5C96      		adiw r26,28
 6500 0c48 1C92      		st X,__zero_reg__
 6501 0c4a 5C97      		sbiw r26,28
 6502 0c4c 5D96      		adiw r26,29
 6503 0c4e 1C92      		st X,__zero_reg__
 6504 0c50 5D97      		sbiw r26,29
 6505 0c52 5E96      		adiw r26,30
 6506 0c54 1C92      		st X,__zero_reg__
 6507 0c56 5E97      		sbiw r26,30
 6508 0c58 5F96      		adiw r26,31
 6509 0c5a 1C92      		st X,__zero_reg__
 6510 0c5c 5F97      		sbiw r26,31
 6511               	.LSM485:
 6512 0c5e 5596      		adiw r26,21
 6513 0c60 9C91      		ld r25,X
 6514 0c62 5597      		sbiw r26,21
 6515 0c64 80E0      		ldi r24,lo8(0)
 6516 0c66 5496      		adiw r26,20
 6517 0c68 2C91      		ld r18,X
 6518 0c6a 30E0      		ldi r19,lo8(0)
 6519 0c6c 822B      		or r24,r18
 6520 0c6e 932B      		or r25,r19
 6521 0c70 A0E0      		ldi r26,lo8(0)
 6522 0c72 B0E0      		ldi r27,hi8(0)
 6523 0c74 6C01      		movw r12,r24
 6524 0c76 BB24      		clr r11
 6525 0c78 AA24      		clr r10
 6526               	.LVL546:
 6527 0c7a F201      		movw r30,r4
 6528 0c7c 938D      		ldd r25,Z+27
 6529 0c7e 80E0      		ldi r24,lo8(0)
 6530 0c80 228D      		ldd r18,Z+26
 6531 0c82 30E0      		ldi r19,lo8(0)
 6532 0c84 822B      		or r24,r18
 6533 0c86 932B      		or r25,r19
 6534 0c88 A0E0      		ldi r26,lo8(0)
 6535 0c8a B0E0      		ldi r27,hi8(0)
 6536 0c8c A82A      		or r10,r24
 6537 0c8e B92A      		or r11,r25
 6538 0c90 CA2A      		or r12,r26
 6539 0c92 DB2A      		or r13,r27
 6540               	.LSM486:
 6541 0c94 128E      		std Z+26,__zero_reg__
 6542 0c96 138E      		std Z+27,__zero_reg__
 6543 0c98 148A      		std Z+20,__zero_reg__
 6544 0c9a 158A      		std Z+21,__zero_reg__
 6545               	.LSM487:
 6546 0c9c ED85      		ldd r30,Y+13
 6547 0c9e FE85      		ldd r31,Y+14
 6548 0ca0 81E0      		ldi r24,lo8(1)
 6549 0ca2 8483      		std Z+4,r24
 6550               	.LSM488:
 6551 0ca4 A114      		cp r10,__zero_reg__
 6552 0ca6 B104      		cpc r11,__zero_reg__
 6553 0ca8 C104      		cpc r12,__zero_reg__
 6554 0caa D104      		cpc r13,__zero_reg__
 6555 0cac 01F4      		brne .+2
 6556 0cae 00C0      		rjmp .L260
 6557               	.LSM489:
 6558 0cb0 2D84      		ldd r2,Y+13
 6559 0cb2 3E84      		ldd r3,Y+14
 6560 0cb4 D101      		movw r26,r2
 6561 0cb6 9C96      		adiw r26,44
 6562 0cb8 2D91      		ld r18,X+
 6563 0cba 3D91      		ld r19,X+
 6564 0cbc 4D91      		ld r20,X+
 6565 0cbe 5C91      		ld r21,X
 6566 0cc0 9F97      		sbiw r26,44+3
 6567 0cc2 2FA3      		std Y+39,r18
 6568 0cc4 38A7      		std Y+40,r19
 6569 0cc6 49A7      		std Y+41,r20
 6570 0cc8 5AA7      		std Y+42,r21
 6571               	.LVL547:
 6572               	.LBB54:
 6573               	.LBB55:
 6574               	.LSM490:
 6575 0cca B1E0      		ldi r27,lo8(1)
 6576 0ccc AB16      		cp r10,r27
 6577 0cce B104      		cpc r11,__zero_reg__
 6578 0cd0 C104      		cpc r12,__zero_reg__
 6579 0cd2 D104      		cpc r13,__zero_reg__
 6580 0cd4 01F4      		brne .+2
 6581 0cd6 00C0      		rjmp .L261
 6582 0cd8 F101      		movw r30,r2
 6583 0cda 808D      		ldd r24,Z+24
 6584 0cdc 918D      		ldd r25,Z+25
 6585 0cde A28D      		ldd r26,Z+26
 6586 0ce0 B38D      		ldd r27,Z+27
 6587 0ce2 A816      		cp r10,r24
 6588 0ce4 B906      		cpc r11,r25
 6589 0ce6 CA06      		cpc r12,r26
 6590 0ce8 DB06      		cpc r13,r27
 6591 0cea 00F0      		brlo .+2
 6592 0cec 00C0      		rjmp .L261
 6593 0cee 8601      		movw r16,r12
 6594 0cf0 7501      		movw r14,r10
 6595               	.LVL548:
 6596 0cf2 00C0      		rjmp .L262
 6597               	.LVL549:
 6598               	.L266:
 6599               	.LBE55:
 6600               	.LSM491:
 6601 0cf4 C101      		movw r24,r2
 6602 0cf6 B801      		movw r22,r16
 6603 0cf8 A701      		movw r20,r14
 6604 0cfa 0E94 0000 		call get_fat
 6605 0cfe 3B01      		movw r6,r22
 6606 0d00 4C01      		movw r8,r24
 6607               	.LVL550:
 6608               	.LBB56:
 6609               	.LSM492:
 6610 0d02 6115      		cp r22,__zero_reg__
 6611 0d04 7105      		cpc r23,__zero_reg__
 6612 0d06 8105      		cpc r24,__zero_reg__
 6613 0d08 9105      		cpc r25,__zero_reg__
 6614 0d0a 01F4      		brne .+2
 6615 0d0c 00C0      		rjmp .L263
 6616               	.LVL551:
 6617               	.LSM493:
 6618 0d0e 6130      		cpi r22,lo8(1)
 6619 0d10 7105      		cpc r23,__zero_reg__
 6620 0d12 8105      		cpc r24,__zero_reg__
 6621 0d14 9105      		cpc r25,__zero_reg__
 6622 0d16 01F0      		breq .L261
 6623               	.LSM494:
 6624 0d18 6F3F      		cpi r22,lo8(-1)
 6625 0d1a 2FEF      		ldi r18,hi8(-1)
 6626 0d1c 7207      		cpc r23,r18
 6627 0d1e 2FEF      		ldi r18,hlo8(-1)
 6628 0d20 8207      		cpc r24,r18
 6629 0d22 2FEF      		ldi r18,hhi8(-1)
 6630 0d24 9207      		cpc r25,r18
 6631 0d26 01F4      		brne .L264
 6632 0d28 FF24      		clr r15
 6633 0d2a F394      		inc r15
 6634 0d2c 00C0      		rjmp .L256
 6635               	.L264:
 6636               	.LBE56:
 6637               	.LSM495:
 6638 0d2e C101      		movw r24,r2
 6639 0d30 B801      		movw r22,r16
 6640 0d32 A701      		movw r20,r14
 6641 0d34 00E0      		ldi r16,lo8(0)
 6642 0d36 10E0      		ldi r17,hi8(0)
 6643 0d38 20E0      		ldi r18,hlo8(0)
 6644 0d3a 30E0      		ldi r19,hhi8(0)
 6645               	.LVL552:
 6646 0d3c 0E94 0000 		call put_fat
 6647               	.LVL553:
 6648 0d40 F82E      		mov r15,r24
 6649               	.LBB57:
 6650               	.LSM496:
 6651 0d42 8823      		tst r24
 6652 0d44 01F0      		breq .+2
 6653 0d46 00C0      		rjmp .L256
 6654               	.LVL554:
 6655               	.LSM497:
 6656 0d48 F101      		movw r30,r2
 6657 0d4a 8089      		ldd r24,Z+16
 6658 0d4c 9189      		ldd r25,Z+17
 6659 0d4e A289      		ldd r26,Z+18
 6660 0d50 B389      		ldd r27,Z+19
 6661               	.LVL555:
 6662 0d52 8F3F      		cpi r24,lo8(-1)
 6663 0d54 FFEF      		ldi r31,hi8(-1)
 6664 0d56 9F07      		cpc r25,r31
 6665 0d58 FFEF      		ldi r31,hlo8(-1)
 6666 0d5a AF07      		cpc r26,r31
 6667 0d5c FFEF      		ldi r31,hhi8(-1)
 6668 0d5e BF07      		cpc r27,r31
 6669 0d60 01F0      		breq .L265
 6670               	.LSM498:
 6671 0d62 0196      		adiw r24,1
 6672 0d64 A11D      		adc r26,__zero_reg__
 6673 0d66 B11D      		adc r27,__zero_reg__
 6674 0d68 F101      		movw r30,r2
 6675 0d6a 808B      		std Z+16,r24
 6676 0d6c 918B      		std Z+17,r25
 6677 0d6e A28B      		std Z+18,r26
 6678 0d70 B38B      		std Z+19,r27
 6679               	.LSM499:
 6680 0d72 21E0      		ldi r18,lo8(1)
 6681 0d74 2583      		std Z+5,r18
 6682               	.L265:
 6683 0d76 8401      		movw r16,r8
 6684 0d78 7301      		movw r14,r6
 6685               	.LVL556:
 6686               	.L262:
 6687               	.LSM500:
 6688 0d7a F101      		movw r30,r2
 6689 0d7c 808D      		ldd r24,Z+24
 6690 0d7e 918D      		ldd r25,Z+25
 6691 0d80 A28D      		ldd r26,Z+26
 6692 0d82 B38D      		ldd r27,Z+27
 6693 0d84 E816      		cp r14,r24
 6694 0d86 F906      		cpc r15,r25
 6695 0d88 0A07      		cpc r16,r26
 6696 0d8a 1B07      		cpc r17,r27
 6697 0d8c 00F4      		brsh .+2
 6698 0d8e 00C0      		rjmp .L266
 6699 0d90 00C0      		rjmp .L263
 6700               	.LVL557:
 6701               	.L261:
 6702 0d92 22E0      		ldi r18,lo8(2)
 6703 0d94 F22E      		mov r15,r18
 6704 0d96 00C0      		rjmp .L256
 6705               	.LVL558:
 6706               	.L251:
 6707               	.LBE57:
 6708               	.LBE54:
 6709               	.LBE53:
 6710               	.LSM501:
 6711 0d98 FF20      		tst r15
 6712 0d9a 01F0      		breq .+2
 6713 0d9c 00C0      		rjmp .L256
 6714               	.LSM502:
 6715 0d9e D201      		movw r26,r4
 6716               	.LVL559:
 6717 0da0 1B96      		adiw r26,11
 6718 0da2 8C91      		ld r24,X
 6719 0da4 84FF      		sbrs r24,4
 6720 0da6 00C0      		rjmp .L267
 6721 0da8 94E0      		ldi r25,lo8(4)
 6722 0daa F92E      		mov r15,r25
 6723 0dac 00C0      		rjmp .L256
 6724               	.LVL560:
 6725               	.L267:
 6726               	.LSM503:
 6727 0dae 21FF      		sbrs r18,1
 6728 0db0 00C0      		rjmp .L260
 6729 0db2 80FD      		sbrc r24,0
 6730 0db4 00C0      		rjmp .L268
 6731               	.LVL561:
 6732               	.L260:
 6733               	.LSM504:
 6734 0db6 BBA5      		ldd r27,Y+43
 6735 0db8 B3FF      		sbrs r27,3
 6736 0dba 00C0      		rjmp .L269
 6737               	.LSM505:
 6738 0dbc B062      		ori r27,lo8(32)
 6739 0dbe BBA7      		std Y+43,r27
 6740               	.LVL562:
 6741               	.L269:
 6742               	.LSM506:
 6743 0dc0 ED85      		ldd r30,Y+13
 6744 0dc2 FE85      		ldd r31,Y+14
 6745               	.LVL563:
 6746 0dc4 24A5      		ldd r18,Z+44
 6747 0dc6 35A5      		ldd r19,Z+45
 6748 0dc8 46A5      		ldd r20,Z+46
 6749 0dca 57A5      		ldd r21,Z+47
 6750 0dcc ACA9      		ldd r26,Y+52
 6751 0dce BDA9      		ldd r27,Y+53
 6752               	.LVL564:
 6753 0dd0 5A96      		adiw r26,26
 6754 0dd2 2D93      		st X+,r18
 6755 0dd4 3D93      		st X+,r19
 6756 0dd6 4D93      		st X+,r20
 6757 0dd8 5C93      		st X,r21
 6758 0dda 5D97      		sbiw r26,26+3
 6759               	.LSM507:
 6760 0ddc 5F96      		adiw r26,30+1
 6761 0dde 5C92      		st X,r5
 6762 0de0 4E92      		st -X,r4
 6763 0de2 5E97      		sbiw r26,30
 6764               	.LSM508:
 6765 0de4 2BA5      		ldd r18,Y+43
 6766 0de6 1496      		adiw r26,4
 6767 0de8 2C93      		st X,r18
 6768               	.LSM509:
 6769 0dea D201      		movw r26,r4
 6770 0dec 5596      		adiw r26,21
 6771 0dee 3C91      		ld r19,X
 6772 0df0 5597      		sbiw r26,21
 6773 0df2 20E0      		ldi r18,lo8(0)
 6774 0df4 5496      		adiw r26,20
 6775 0df6 8C91      		ld r24,X
 6776 0df8 5497      		sbiw r26,20
 6777 0dfa 90E0      		ldi r25,lo8(0)
 6778 0dfc 282B      		or r18,r24
 6779 0dfe 392B      		or r19,r25
 6780 0e00 40E0      		ldi r20,lo8(0)
 6781 0e02 50E0      		ldi r21,hi8(0)
 6782               	.LVL565:
 6783 0e04 A901      		movw r20,r18
 6784 0e06 3327      		clr r19
 6785 0e08 2227      		clr r18
 6786 0e0a 5B96      		adiw r26,27
 6787 0e0c 9C91      		ld r25,X
 6788 0e0e 5B97      		sbiw r26,27
 6789 0e10 80E0      		ldi r24,lo8(0)
 6790 0e12 5A96      		adiw r26,26
 6791 0e14 6C91      		ld r22,X
 6792               	.LVL566:
 6793 0e16 70E0      		ldi r23,lo8(0)
 6794 0e18 862B      		or r24,r22
 6795 0e1a 972B      		or r25,r23
 6796 0e1c A0E0      		ldi r26,lo8(0)
 6797 0e1e B0E0      		ldi r27,hi8(0)
 6798 0e20 282B      		or r18,r24
 6799 0e22 392B      		or r19,r25
 6800 0e24 4A2B      		or r20,r26
 6801 0e26 5B2B      		or r21,r27
 6802 0e28 ACA9      		ldd r26,Y+52
 6803 0e2a BDA9      		ldd r27,Y+53
 6804 0e2c 1E96      		adiw r26,14
 6805 0e2e 2D93      		st X+,r18
 6806 0e30 3D93      		st X+,r19
 6807 0e32 4D93      		st X+,r20
 6808 0e34 5C93      		st X,r21
 6809 0e36 5197      		sbiw r26,14+3
 6810               	.LSM510:
 6811 0e38 D201      		movw r26,r4
 6812 0e3a 5F96      		adiw r26,31
 6813 0e3c 2C91      		ld r18,X
 6814 0e3e 5F97      		sbiw r26,31
 6815 0e40 30E0      		ldi r19,lo8(0)
 6816 0e42 40E0      		ldi r20,lo8(0)
 6817 0e44 50E0      		ldi r21,hi8(0)
 6818 0e46 522F      		mov r21,r18
 6819 0e48 4427      		clr r20
 6820 0e4a 3327      		clr r19
 6821 0e4c 2227      		clr r18
 6822               	.LVL567:
 6823 0e4e 5E96      		adiw r26,30
 6824 0e50 8C91      		ld r24,X
 6825 0e52 90E0      		ldi r25,lo8(0)
 6826 0e54 A0E0      		ldi r26,lo8(0)
 6827 0e56 B0E0      		ldi r27,hi8(0)
 6828 0e58 DC01      		movw r26,r24
 6829 0e5a 9927      		clr r25
 6830 0e5c 8827      		clr r24
 6831 0e5e 282B      		or r18,r24
 6832 0e60 392B      		or r19,r25
 6833 0e62 4A2B      		or r20,r26
 6834 0e64 5B2B      		or r21,r27
 6835 0e66 D201      		movw r26,r4
 6836 0e68 5C96      		adiw r26,28
 6837 0e6a 8C91      		ld r24,X
 6838 0e6c 90E0      		ldi r25,lo8(0)
 6839 0e6e A0E0      		ldi r26,lo8(0)
 6840 0e70 B0E0      		ldi r27,hi8(0)
 6841 0e72 282B      		or r18,r24
 6842 0e74 392B      		or r19,r25
 6843 0e76 4A2B      		or r20,r26
 6844 0e78 5B2B      		or r21,r27
 6845 0e7a D201      		movw r26,r4
 6846 0e7c 5D96      		adiw r26,29
 6847 0e7e 9C91      		ld r25,X
 6848 0e80 80E0      		ldi r24,lo8(0)
 6849 0e82 A0E0      		ldi r26,lo8(0)
 6850 0e84 B0E0      		ldi r27,hi8(0)
 6851 0e86 282B      		or r18,r24
 6852 0e88 392B      		or r19,r25
 6853 0e8a 4A2B      		or r20,r26
 6854 0e8c 5B2B      		or r21,r27
 6855 0e8e ACA9      		ldd r26,Y+52
 6856 0e90 BDA9      		ldd r27,Y+53
 6857 0e92 1A96      		adiw r26,10
 6858 0e94 2D93      		st X+,r18
 6859 0e96 3D93      		st X+,r19
 6860 0e98 4D93      		st X+,r20
 6861 0e9a 5C93      		st X,r21
 6862 0e9c 1D97      		sbiw r26,10+3
 6863               	.LSM511:
 6864 0e9e ACA9      		ldd r26,Y+52
 6865 0ea0 BDA9      		ldd r27,Y+53
 6866 0ea2 1696      		adiw r26,6
 6867 0ea4 1D92      		st X+,__zero_reg__
 6868 0ea6 1D92      		st X+,__zero_reg__
 6869 0ea8 1D92      		st X+,__zero_reg__
 6870 0eaa 1C92      		st X,__zero_reg__
 6871 0eac 1997      		sbiw r26,6+3
 6872               	.LSM512:
 6873 0eae ACA9      		ldd r26,Y+52
 6874 0eb0 BDA9      		ldd r27,Y+53
 6875 0eb2 5696      		adiw r26,22
 6876 0eb4 1D92      		st X+,__zero_reg__
 6877 0eb6 1D92      		st X+,__zero_reg__
 6878 0eb8 1D92      		st X+,__zero_reg__
 6879 0eba 1C92      		st X,__zero_reg__
 6880 0ebc 5997      		sbiw r26,22+3
 6881               	.LSM513:
 6882 0ebe 1196      		adiw r26,1
 6883 0ec0 FC93      		st X,r31
 6884 0ec2 EE93      		st -X,r30
 6885 0ec4 8681      		ldd r24,Z+6
 6886 0ec6 9781      		ldd r25,Z+7
 6887 0ec8 1396      		adiw r26,2+1
 6888 0eca 9C93      		st X,r25
 6889 0ecc 8E93      		st -X,r24
 6890 0ece 1297      		sbiw r26,2
 6891 0ed0 FF24      		clr r15
 6892               	.LVL568:
 6893               	.L256:
 6894               	.LSM514:
 6895 0ed2 8F2D      		mov r24,r15
 6896               	/* epilogue start */
 6897 0ed4 E796      		adiw r28,55
 6898 0ed6 0FB6      		in __tmp_reg__,__SREG__
 6899 0ed8 F894      		cli
 6900 0eda DEBF      		out __SP_H__,r29
 6901 0edc 0FBE      		out __SREG__,__tmp_reg__
 6902 0ede CDBF      		out __SP_L__,r28
 6903 0ee0 CF91      		pop r28
 6904 0ee2 DF91      		pop r29
 6905 0ee4 1F91      		pop r17
 6906 0ee6 0F91      		pop r16
 6907               	.LVL569:
 6908 0ee8 FF90      		pop r15
 6909               	.LVL570:
 6910 0eea EF90      		pop r14
 6911               	.LVL571:
 6912 0eec DF90      		pop r13
 6913 0eee CF90      		pop r12
 6914               	.LVL572:
 6915 0ef0 BF90      		pop r11
 6916               	.LVL573:
 6917 0ef2 AF90      		pop r10
 6918               	.LVL574:
 6919 0ef4 9F90      		pop r9
 6920 0ef6 8F90      		pop r8
 6921               	.LVL575:
 6922 0ef8 7F90      		pop r7
 6923 0efa 6F90      		pop r6
 6924               	.LVL576:
 6925 0efc 5F90      		pop r5
 6926 0efe 4F90      		pop r4
 6927               	.LVL577:
 6928 0f00 3F90      		pop r3
 6929               	.LVL578:
 6930 0f02 2F90      		pop r2
 6931 0f04 0895      		ret
 6932               	.LVL579:
 6933               	.L259:
 6934               	.LSM515:
 6935 0f06 E8E0      		ldi r30,lo8(8)
 6936 0f08 FE2E      		mov r15,r30
 6937 0f0a 00C0      		rjmp .L256
 6938               	.LVL580:
 6939               	.L268:
 6940 0f0c 77E0      		ldi r23,lo8(7)
 6941 0f0e F72E      		mov r15,r23
 6942 0f10 00C0      		rjmp .L256
 6943               	.LVL581:
 6944               	.L254:
 6945               	.LBB64:
 6946               	.LBB63:
 6947               	.LSM516:
 6948 0f12 4B8D      		ldd r20,Y+27
 6949 0f14 5C8D      		ldd r21,Y+28
 6950 0f16 6D8D      		ldd r22,Y+29
 6951 0f18 7E8D      		ldd r23,Y+30
 6952 0f1a 8D85      		ldd r24,Y+13
 6953 0f1c 9E85      		ldd r25,Y+14
 6954               	.LVL582:
 6955 0f1e 0E94 0000 		call move_window
 6956               	.LVL583:
 6957 0f22 F82E      		mov r15,r24
 6958               	.LBB62:
 6959               	.LSM517:
 6960 0f24 8823      		tst r24
 6961 0f26 01F0      		breq .+2
 6962 0f28 00C0      		rjmp .L253
 6963               	.LVL584:
 6964 0f2a 00C0      		rjmp .L283
 6965               	.LVL585:
 6966               	.L263:
 6967               	.LBE62:
 6968               	.LBE63:
 6969               	.LSM518:
 6970 0f2c ED85      		ldd r30,Y+13
 6971 0f2e FE85      		ldd r31,Y+14
 6972 0f30 0894      		sec
 6973 0f32 A108      		sbc r10,__zero_reg__
 6974 0f34 B108      		sbc r11,__zero_reg__
 6975 0f36 C108      		sbc r12,__zero_reg__
 6976 0f38 D108      		sbc r13,__zero_reg__
 6977               	.LVL586:
 6978 0f3a A486      		std Z+12,r10
 6979 0f3c B586      		std Z+13,r11
 6980 0f3e C686      		std Z+14,r12
 6981 0f40 D786      		std Z+15,r13
 6982               	.LSM519:
 6983 0f42 8D85      		ldd r24,Y+13
 6984 0f44 9E85      		ldd r25,Y+14
 6985 0f46 4FA1      		ldd r20,Y+39
 6986 0f48 58A5      		ldd r21,Y+40
 6987 0f4a 69A5      		ldd r22,Y+41
 6988 0f4c 7AA5      		ldd r23,Y+42
 6989 0f4e 0E94 0000 		call move_window
 6990 0f52 F82E      		mov r15,r24
 6991               	.LBE64:
 6992               	.LSM520:
 6993 0f54 8823      		tst r24
 6994 0f56 01F4      		brne .+2
 6995 0f58 00C0      		rjmp .L260
 6996               	.LVL587:
 6997 0f5a 00C0      		rjmp .L256
 6998               	.LVL588:
 6999               	.L224:
 7000 0f5c 60E0      		ldi r22,lo8(0)
 7001               	.LVL589:
 7002 0f5e 00C0      		rjmp .L271
 7003               	.LFE154:
 7005               		.lcomm FatFs,2
 7006               		.lcomm Fsid,2
 7167               	.Letext0:
DEFINED SYMBOLS
                            *ABS*:00000000 ff.c
/var/folders/ml/6pvjwk4n6698h5qhg_5pqkt80000gn/T//cc5gEAxa.s:2      *ABS*:0000003f __SREG__
/var/folders/ml/6pvjwk4n6698h5qhg_5pqkt80000gn/T//cc5gEAxa.s:3      *ABS*:0000003e __SP_H__
/var/folders/ml/6pvjwk4n6698h5qhg_5pqkt80000gn/T//cc5gEAxa.s:4      *ABS*:0000003d __SP_L__
/var/folders/ml/6pvjwk4n6698h5qhg_5pqkt80000gn/T//cc5gEAxa.s:5      *ABS*:00000034 __CCP__
/var/folders/ml/6pvjwk4n6698h5qhg_5pqkt80000gn/T//cc5gEAxa.s:6      *ABS*:00000000 __tmp_reg__
/var/folders/ml/6pvjwk4n6698h5qhg_5pqkt80000gn/T//cc5gEAxa.s:7      *ABS*:00000001 __zero_reg__
/var/folders/ml/6pvjwk4n6698h5qhg_5pqkt80000gn/T//cc5gEAxa.s:18     .text.mem_cpy:00000000 mem_cpy
/var/folders/ml/6pvjwk4n6698h5qhg_5pqkt80000gn/T//cc5gEAxa.s:62     .text.mem_set:00000000 mem_set
/var/folders/ml/6pvjwk4n6698h5qhg_5pqkt80000gn/T//cc5gEAxa.s:92     .text.clust2sect:00000000 clust2sect
/var/folders/ml/6pvjwk4n6698h5qhg_5pqkt80000gn/T//cc5gEAxa.s:174    .text.f_mount:00000000 f_mount
                             .bss:00000000 FatFs
/var/folders/ml/6pvjwk4n6698h5qhg_5pqkt80000gn/T//cc5gEAxa.s:217    .text.validate:00000000 validate
/var/folders/ml/6pvjwk4n6698h5qhg_5pqkt80000gn/T//cc5gEAxa.s:256    .text.move_window:00000000 move_window
/var/folders/ml/6pvjwk4n6698h5qhg_5pqkt80000gn/T//cc5gEAxa.s:419    .text.put_fat:00000000 put_fat
/var/folders/ml/6pvjwk4n6698h5qhg_5pqkt80000gn/T//cc5gEAxa.s:817    .text.get_fat:00000000 get_fat
/var/folders/ml/6pvjwk4n6698h5qhg_5pqkt80000gn/T//cc5gEAxa.s:1169   .text.create_chain:00000000 create_chain
/var/folders/ml/6pvjwk4n6698h5qhg_5pqkt80000gn/T//cc5gEAxa.s:1484   .text.f_lseek:00000000 f_lseek
/var/folders/ml/6pvjwk4n6698h5qhg_5pqkt80000gn/T//cc5gEAxa.s:2052   .text.dir_sdi:00000000 dir_sdi
/var/folders/ml/6pvjwk4n6698h5qhg_5pqkt80000gn/T//cc5gEAxa.s:2332   .text.f_write:00000000 f_write
/var/folders/ml/6pvjwk4n6698h5qhg_5pqkt80000gn/T//cc5gEAxa.s:3062   .text.dir_next:00000000 dir_next
/var/folders/ml/6pvjwk4n6698h5qhg_5pqkt80000gn/T//cc5gEAxa.s:3421   .text.f_read:00000000 f_read
/var/folders/ml/6pvjwk4n6698h5qhg_5pqkt80000gn/T//cc5gEAxa.s:4011   .text.check_fs:00000000 check_fs
/var/folders/ml/6pvjwk4n6698h5qhg_5pqkt80000gn/T//cc5gEAxa.s:4166   .text.f_sync:00000000 f_sync
/var/folders/ml/6pvjwk4n6698h5qhg_5pqkt80000gn/T//cc5gEAxa.s:4476   .text.f_close:00000000 f_close
/var/folders/ml/6pvjwk4n6698h5qhg_5pqkt80000gn/T//cc5gEAxa.s:4510   .text.f_open:00000000 f_open
/var/folders/ml/6pvjwk4n6698h5qhg_5pqkt80000gn/T//cc5gEAxa.s:7005   .bss:00000002 Fsid

UNDEFINED SYMBOLS
__mulsi3
disk_status
disk_write
disk_read
__udivmodhi4
__udivmodsi4
get_fattime
disk_ioctl
disk_initialize
__do_copy_data
__do_clear_bss
